(lp0
(I0
I0
I8
I6
I6
I9
I0
I0
I8
I0
I0
I9
I0
I0
I8
I1
I1
I9
I0
I0
I0
I7
I5
I5
I2
I3
I3
I7
I0
I0
I2
I0
I0
I7
I4
I4
tp1
a(I0
I0
I8
I6
I6
I9
I0
I0
I8
I0
I0
I9
I0
I0
I8
I1
I1
I9
I2
I0
I0
I7
I5
I5
I2
I3
I3
I7
I0
I0
I0
I0
I0
I7
I4
I4
tp2
a(I0
I0
I8
I6
I6
I9
I0
I0
I8
I0
I0
I9
I2
I0
I8
I1
I1
I9
I2
I0
I0
I7
I5
I5
I0
I3
I3
I7
I0
I0
I0
I0
I0
I7
I4
I4
tp3
a(I0
I0
I8
I6
I6
I9
I2
I0
I8
I0
I0
I9
I2
I0
I8
I1
I1
I9
I0
I0
I0
I7
I5
I5
I0
I3
I3
I7
I0
I0
I0
I0
I0
I7
I4
I4
tp4
a(I2
I0
I8
I6
I6
I9
I2
I0
I8
I0
I0
I9
I0
I0
I8
I1
I1
I9
I0
I0
I0
I7
I5
I5
I0
I3
I3
I7
I0
I0
I0
I0
I0
I7
I4
I4
tp5
a(I2
I0
I8
I6
I6
I9
I2
I0
I8
I0
I0
I9
I0
I0
I8
I1
I1
I9
I0
I0
I0
I7
I5
I5
I3
I3
I0
I7
I0
I0
I0
I0
I0
I7
I4
I4
tp6
a(I2
I0
I0
I6
I6
I9
I2
I0
I8
I0
I0
I9
I0
I0
I8
I1
I1
I9
I0
I0
I8
I7
I5
I5
I3
I3
I0
I7
I0
I0
I0
I0
I0
I7
I4
I4
tp7
a(I2
I0
I6
I6
I0
I9
I2
I0
I8
I0
I0
I9
I0
I0
I8
I1
I1
I9
I0
I0
I8
I7
I5
I5
I3
I3
I0
I7
I0
I0
I0
I0
I0
I7
I4
I4
tp8
a(I2
I6
I6
I0
I0
I9
I2
I0
I8
I0
I0
I9
I0
I0
I8
I1
I1
I9
I0
I0
I8
I7
I5
I5
I3
I3
I0
I7
I0
I0
I0
I0
I0
I7
I4
I4
tp9
a(I2
I6
I6
I0
I0
I9
I2
I0
I0
I0
I0
I9
I0
I0
I8
I1
I1
I9
I0
I0
I8
I7
I5
I5
I3
I3
I8
I7
I0
I0
I0
I0
I0
I7
I4
I4
tp10
a(I2
I6
I6
I0
I0
I9
I2
I0
I0
I0
I0
I9
I0
I0
I0
I1
I1
I9
I0
I0
I8
I7
I5
I5
I3
I3
I8
I7
I0
I0
I0
I0
I8
I7
I4
I4
tp11
a(I2
I6
I6
I0
I0
I9
I2
I0
I0
I0
I0
I9
I0
I0
I1
I1
I0
I9
I0
I0
I8
I7
I5
I5
I3
I3
I8
I7
I0
I0
I0
I0
I8
I7
I4
I4
tp12
a(I2
I6
I6
I0
I0
I9
I2
I0
I0
I0
I0
I9
I0
I1
I1
I0
I0
I9
I0
I0
I8
I7
I5
I5
I3
I3
I8
I7
I0
I0
I0
I0
I8
I7
I4
I4
tp13
a(I2
I6
I6
I0
I0
I9
I2
I0
I0
I0
I0
I9
I1
I1
I0
I0
I0
I9
I0
I0
I8
I7
I5
I5
I3
I3
I8
I7
I0
I0
I0
I0
I8
I7
I4
I4
tp14
a(I2
I6
I6
I0
I0
I9
I2
I0
I0
I0
I0
I9
I1
I1
I0
I7
I0
I9
I0
I0
I8
I7
I5
I5
I3
I3
I8
I7
I0
I0
I0
I0
I8
I0
I4
I4
tp15
a(I2
I6
I6
I0
I0
I9
I2
I0
I0
I0
I0
I9
I1
I1
I0
I7
I0
I9
I0
I0
I8
I7
I5
I5
I3
I3
I8
I7
I0
I0
I0
I0
I8
I4
I4
I0
tp16
a(I2
I6
I6
I0
I0
I9
I2
I0
I0
I7
I0
I9
I1
I1
I0
I7
I0
I9
I0
I0
I8
I7
I5
I5
I3
I3
I8
I0
I0
I0
I0
I0
I8
I4
I4
I0
tp17
a(I2
I6
I6
I7
I0
I9
I2
I0
I0
I7
I0
I9
I1
I1
I0
I7
I0
I9
I0
I0
I8
I0
I5
I5
I3
I3
I8
I0
I0
I0
I0
I0
I8
I4
I4
I0
tp18
a(I2
I6
I6
I7
I0
I9
I2
I0
I0
I7
I0
I9
I1
I1
I0
I7
I0
I9
I0
I0
I8
I5
I5
I0
I3
I3
I8
I0
I0
I0
I0
I0
I8
I4
I4
I0
tp19
a(I2
I6
I6
I7
I0
I9
I2
I0
I0
I7
I0
I9
I1
I1
I8
I7
I0
I9
I0
I0
I8
I5
I5
I0
I3
I3
I8
I0
I0
I0
I0
I0
I0
I4
I4
I0
tp20
a(I2
I6
I6
I7
I0
I9
I2
I0
I8
I7
I0
I9
I1
I1
I8
I7
I0
I9
I0
I0
I8
I5
I5
I0
I3
I3
I0
I0
I0
I0
I0
I0
I0
I4
I4
I0
tp21
a(I2
I6
I6
I7
I0
I9
I2
I0
I8
I7
I0
I9
I1
I1
I8
I7
I0
I9
I0
I0
I8
I5
I5
I0
I0
I3
I3
I0
I0
I0
I0
I0
I0
I4
I4
I0
tp22
a(I2
I6
I6
I7
I0
I9
I2
I0
I8
I7
I0
I9
I1
I1
I8
I7
I0
I9
I0
I0
I8
I5
I5
I0
I0
I0
I3
I3
I0
I0
I0
I0
I0
I4
I4
I0
tp23
a(I2
I6
I6
I7
I0
I9
I2
I0
I8
I7
I0
I9
I1
I1
I8
I7
I0
I9
I0
I0
I8
I5
I5
I0
I0
I0
I0
I3
I3
I0
I0
I0
I0
I4
I4
I0
tp24
a(I2
I6
I6
I7
I0
I9
I2
I0
I0
I7
I0
I9
I1
I1
I8
I7
I0
I9
I0
I0
I8
I5
I5
I0
I0
I0
I8
I3
I3
I0
I0
I0
I0
I4
I4
I0
tp25
a(I2
I6
I6
I7
I0
I9
I2
I0
I0
I7
I0
I9
I1
I1
I0
I7
I0
I9
I0
I0
I8
I5
I5
I0
I0
I0
I8
I3
I3
I0
I0
I0
I8
I4
I4
I0
tp26
a(I2
I6
I6
I7
I0
I9
I2
I0
I0
I7
I0
I9
I0
I1
I1
I7
I0
I9
I0
I0
I8
I5
I5
I0
I0
I0
I8
I3
I3
I0
I0
I0
I8
I4
I4
I0
tp27
a(I0
I6
I6
I7
I0
I9
I2
I0
I0
I7
I0
I9
I2
I1
I1
I7
I0
I9
I0
I0
I8
I5
I5
I0
I0
I0
I8
I3
I3
I0
I0
I0
I8
I4
I4
I0
tp28
a(I0
I6
I6
I7
I0
I9
I0
I0
I0
I7
I0
I9
I2
I1
I1
I7
I0
I9
I2
I0
I8
I5
I5
I0
I0
I0
I8
I3
I3
I0
I0
I0
I8
I4
I4
I0
tp29
a(I0
I6
I6
I7
I0
I9
I0
I0
I0
I7
I0
I9
I0
I1
I1
I7
I0
I9
I2
I0
I8
I5
I5
I0
I2
I0
I8
I3
I3
I0
I0
I0
I8
I4
I4
I0
tp30
a(I0
I6
I6
I7
I0
I9
I0
I0
I0
I7
I0
I9
I1
I1
I0
I7
I0
I9
I2
I0
I8
I5
I5
I0
I2
I0
I8
I3
I3
I0
I0
I0
I8
I4
I4
I0
tp31
a(I0
I6
I6
I7
I0
I9
I0
I0
I0
I7
I0
I9
I1
I1
I0
I7
I0
I9
I0
I0
I8
I5
I5
I0
I2
I0
I8
I3
I3
I0
I2
I0
I8
I4
I4
I0
tp32
a(I6
I6
I0
I7
I0
I9
I0
I0
I0
I7
I0
I9
I1
I1
I0
I7
I0
I9
I0
I0
I8
I5
I5
I0
I2
I0
I8
I3
I3
I0
I2
I0
I8
I4
I4
I0
tp33
a(I6
I6
I0
I7
I0
I9
I0
I0
I0
I7
I0
I9
I1
I1
I8
I7
I0
I9
I0
I0
I8
I5
I5
I0
I2
I0
I8
I3
I3
I0
I2
I0
I0
I4
I4
I0
tp34
a(I6
I6
I0
I7
I0
I9
I0
I0
I0
I7
I0
I9
I1
I1
I8
I7
I0
I9
I0
I0
I8
I5
I5
I0
I2
I0
I8
I3
I3
I0
I2
I0
I4
I4
I0
I0
tp35
a(I6
I6
I0
I7
I0
I9
I0
I0
I0
I7
I0
I9
I1
I1
I8
I7
I0
I9
I0
I0
I8
I5
I5
I0
I2
I0
I8
I3
I3
I0
I2
I4
I4
I0
I0
I0
tp36
a(I6
I6
I0
I7
I0
I9
I0
I0
I8
I7
I0
I9
I1
I1
I8
I7
I0
I9
I0
I0
I8
I5
I5
I0
I2
I0
I0
I3
I3
I0
I2
I4
I4
I0
I0
I0
tp37
a(I6
I6
I8
I7
I0
I9
I0
I0
I8
I7
I0
I9
I1
I1
I8
I7
I0
I9
I0
I0
I0
I5
I5
I0
I2
I0
I0
I3
I3
I0
I2
I4
I4
I0
I0
I0
tp38
a(I6
I6
I8
I7
I0
I9
I0
I0
I8
I7
I0
I9
I1
I1
I8
I7
I0
I9
I0
I0
I5
I5
I0
I0
I2
I0
I0
I3
I3
I0
I2
I4
I4
I0
I0
I0
tp39
a(I6
I6
I8
I7
I0
I9
I0
I0
I8
I7
I0
I9
I1
I1
I8
I7
I0
I9
I0
I5
I5
I0
I0
I0
I2
I0
I0
I3
I3
I0
I2
I4
I4
I0
I0
I0
tp40
a(I6
I6
I8
I7
I0
I9
I0
I0
I8
I7
I0
I9
I1
I1
I8
I7
I0
I9
I5
I5
I0
I0
I0
I0
I2
I0
I0
I3
I3
I0
I2
I4
I4
I0
I0
I0
tp41
a(I6
I6
I8
I0
I0
I9
I0
I0
I8
I7
I0
I9
I1
I1
I8
I7
I0
I9
I5
I5
I0
I7
I0
I0
I2
I0
I0
I3
I3
I0
I2
I4
I4
I0
I0
I0
tp42
a(I6
I6
I0
I0
I0
I9
I0
I0
I8
I7
I0
I9
I1
I1
I8
I7
I0
I9
I5
I5
I8
I7
I0
I0
I2
I0
I0
I3
I3
I0
I2
I4
I4
I0
I0
I0
tp43
a(I0
I6
I6
I0
I0
I9
I0
I0
I8
I7
I0
I9
I1
I1
I8
I7
I0
I9
I5
I5
I8
I7
I0
I0
I2
I0
I0
I3
I3
I0
I2
I4
I4
I0
I0
I0
tp44
a(I0
I0
I6
I6
I0
I9
I0
I0
I8
I7
I0
I9
I1
I1
I8
I7
I0
I9
I5
I5
I8
I7
I0
I0
I2
I0
I0
I3
I3
I0
I2
I4
I4
I0
I0
I0
tp45
a(I0
I0
I0
I6
I6
I9
I0
I0
I8
I7
I0
I9
I1
I1
I8
I7
I0
I9
I5
I5
I8
I7
I0
I0
I2
I0
I0
I3
I3
I0
I2
I4
I4
I0
I0
I0
tp46
a(I0
I0
I8
I6
I6
I9
I0
I0
I8
I7
I0
I9
I1
I1
I8
I7
I0
I9
I5
I5
I0
I7
I0
I0
I2
I0
I0
I3
I3
I0
I2
I4
I4
I0
I0
I0
tp47
a(I0
I0
I8
I6
I6
I9
I0
I0
I8
I7
I0
I9
I1
I1
I8
I7
I0
I9
I0
I5
I5
I7
I0
I0
I2
I0
I0
I3
I3
I0
I2
I4
I4
I0
I0
I0
tp48
a(I0
I0
I8
I6
I6
I9
I0
I0
I8
I7
I0
I9
I1
I1
I8
I7
I0
I9
I2
I5
I5
I7
I0
I0
I2
I0
I0
I3
I3
I0
I0
I4
I4
I0
I0
I0
tp49
a(I0
I0
I8
I6
I6
I9
I0
I0
I8
I7
I0
I9
I1
I1
I8
I7
I0
I9
I2
I5
I5
I7
I0
I0
I2
I0
I0
I3
I3
I0
I4
I4
I0
I0
I0
I0
tp50
a(I0
I0
I8
I6
I6
I0
I0
I0
I8
I7
I0
I9
I1
I1
I8
I7
I0
I9
I2
I5
I5
I7
I0
I9
I2
I0
I0
I3
I3
I0
I4
I4
I0
I0
I0
I0
tp51
a(I0
I0
I8
I0
I6
I6
I0
I0
I8
I7
I0
I9
I1
I1
I8
I7
I0
I9
I2
I5
I5
I7
I0
I9
I2
I0
I0
I3
I3
I0
I4
I4
I0
I0
I0
I0
tp52
a(I0
I0
I8
I7
I6
I6
I0
I0
I8
I7
I0
I9
I1
I1
I8
I7
I0
I9
I2
I5
I5
I0
I0
I9
I2
I0
I0
I3
I3
I0
I4
I4
I0
I0
I0
I0
tp53
a(I0
I0
I8
I7
I6
I6
I0
I0
I8
I7
I0
I9
I1
I1
I8
I7
I0
I9
I2
I0
I5
I5
I0
I9
I2
I0
I0
I3
I3
I0
I4
I4
I0
I0
I0
I0
tp54
a(I0
I0
I8
I7
I6
I6
I0
I0
I8
I7
I0
I9
I1
I1
I8
I7
I0
I9
I2
I0
I0
I5
I5
I9
I2
I0
I0
I3
I3
I0
I4
I4
I0
I0
I0
I0
tp55
a(I0
I0
I0
I7
I6
I6
I0
I0
I8
I7
I0
I9
I1
I1
I8
I7
I0
I9
I2
I0
I8
I5
I5
I9
I2
I0
I0
I3
I3
I0
I4
I4
I0
I0
I0
I0
tp56
a(I0
I0
I0
I7
I6
I6
I0
I0
I0
I7
I0
I9
I1
I1
I8
I7
I0
I9
I2
I0
I8
I5
I5
I9
I2
I0
I8
I3
I3
I0
I4
I4
I0
I0
I0
I0
tp57
a(I0
I0
I0
I7
I6
I6
I0
I0
I0
I7
I0
I9
I1
I1
I0
I7
I0
I9
I2
I0
I8
I5
I5
I9
I2
I0
I8
I3
I3
I0
I4
I4
I8
I0
I0
I0
tp58
a(I0
I0
I0
I7
I6
I6
I0
I0
I0
I7
I0
I9
I0
I1
I1
I7
I0
I9
I2
I0
I8
I5
I5
I9
I2
I0
I8
I3
I3
I0
I4
I4
I8
I0
I0
I0
tp59
a(I0
I0
I0
I7
I6
I6
I0
I0
I0
I7
I0
I9
I2
I1
I1
I7
I0
I9
I2
I0
I8
I5
I5
I9
I0
I0
I8
I3
I3
I0
I4
I4
I8
I0
I0
I0
tp60
a(I0
I0
I0
I7
I6
I6
I2
I0
I0
I7
I0
I9
I2
I1
I1
I7
I0
I9
I0
I0
I8
I5
I5
I9
I0
I0
I8
I3
I3
I0
I4
I4
I8
I0
I0
I0
tp61
a(I2
I0
I0
I7
I6
I6
I2
I0
I0
I7
I0
I9
I0
I1
I1
I7
I0
I9
I0
I0
I8
I5
I5
I9
I0
I0
I8
I3
I3
I0
I4
I4
I8
I0
I0
I0
tp62
a(I2
I0
I0
I7
I6
I6
I2
I0
I0
I7
I0
I9
I1
I1
I0
I7
I0
I9
I0
I0
I8
I5
I5
I9
I0
I0
I8
I3
I3
I0
I4
I4
I8
I0
I0
I0
tp63
a(I2
I0
I0
I7
I6
I6
I2
I0
I0
I7
I0
I9
I1
I1
I8
I7
I0
I9
I0
I0
I8
I5
I5
I9
I0
I0
I8
I3
I3
I0
I4
I4
I0
I0
I0
I0
tp64
a(I2
I0
I0
I7
I6
I6
I2
I0
I8
I7
I0
I9
I1
I1
I8
I7
I0
I9
I0
I0
I8
I5
I5
I9
I0
I0
I0
I3
I3
I0
I4
I4
I0
I0
I0
I0
tp65
a(I2
I0
I0
I7
I6
I6
I2
I0
I8
I7
I0
I9
I1
I1
I8
I7
I0
I9
I0
I0
I8
I5
I5
I9
I0
I0
I3
I3
I0
I0
I4
I4
I0
I0
I0
I0
tp66
a(I2
I0
I0
I7
I6
I6
I2
I0
I8
I7
I0
I9
I1
I1
I8
I7
I0
I9
I0
I0
I8
I5
I5
I9
I0
I3
I3
I0
I0
I0
I4
I4
I0
I0
I0
I0
tp67
a(I2
I0
I0
I7
I6
I6
I2
I0
I8
I7
I0
I9
I1
I1
I8
I7
I0
I9
I0
I0
I8
I5
I5
I9
I3
I3
I0
I0
I0
I0
I4
I4
I0
I0
I0
I0
tp68
a(I2
I0
I8
I7
I6
I6
I2
I0
I8
I7
I0
I9
I1
I1
I8
I7
I0
I9
I0
I0
I0
I5
I5
I9
I3
I3
I0
I0
I0
I0
I4
I4
I0
I0
I0
I0
tp69
a(I2
I0
I8
I7
I6
I6
I2
I0
I8
I7
I0
I9
I1
I1
I8
I7
I0
I9
I0
I0
I5
I5
I0
I9
I3
I3
I0
I0
I0
I0
I4
I4
I0
I0
I0
I0
tp70
a(I2
I0
I8
I7
I6
I6
I2
I0
I8
I7
I0
I9
I1
I1
I8
I7
I0
I9
I0
I5
I5
I0
I0
I9
I3
I3
I0
I0
I0
I0
I4
I4
I0
I0
I0
I0
tp71
a(I2
I0
I8
I7
I6
I6
I2
I0
I8
I7
I0
I9
I1
I1
I8
I7
I0
I9
I5
I5
I0
I0
I0
I9
I3
I3
I0
I0
I0
I0
I4
I4
I0
I0
I0
I0
tp72
a(I2
I0
I8
I0
I6
I6
I2
I0
I8
I7
I0
I9
I1
I1
I8
I7
I0
I9
I5
I5
I0
I7
I0
I9
I3
I3
I0
I0
I0
I0
I4
I4
I0
I0
I0
I0
tp73
a(I2
I0
I8
I0
I6
I6
I2
I0
I8
I0
I0
I9
I1
I1
I8
I7
I0
I9
I5
I5
I0
I7
I0
I9
I3
I3
I0
I7
I0
I0
I4
I4
I0
I0
I0
I0
tp74
a(I2
I0
I8
I0
I6
I6
I2
I0
I8
I0
I0
I9
I1
I1
I8
I0
I0
I9
I5
I5
I0
I7
I0
I9
I3
I3
I0
I7
I0
I0
I4
I4
I0
I7
I0
I0
tp75
a(I2
I0
I0
I0
I6
I6
I2
I0
I8
I0
I0
I9
I1
I1
I8
I0
I0
I9
I5
I5
I8
I7
I0
I9
I3
I3
I0
I7
I0
I0
I4
I4
I0
I7
I0
I0
tp76
a(I2
I0
I0
I0
I6
I6
I2
I0
I0
I0
I0
I9
I1
I1
I8
I0
I0
I9
I5
I5
I8
I7
I0
I9
I3
I3
I8
I7
I0
I0
I4
I4
I0
I7
I0
I0
tp77
a(I2
I0
I0
I0
I6
I6
I2
I0
I0
I0
I0
I9
I1
I1
I0
I0
I0
I9
I5
I5
I8
I7
I0
I9
I3
I3
I8
I7
I0
I0
I4
I4
I8
I7
I0
I0
tp78
a(I2
I0
I0
I0
I6
I6
I2
I0
I0
I0
I0
I0
I1
I1
I0
I0
I0
I9
I5
I5
I8
I7
I0
I9
I3
I3
I8
I7
I0
I9
I4
I4
I8
I7
I0
I0
tp79
a(I2
I0
I0
I0
I6
I6
I2
I0
I0
I0
I0
I0
I1
I1
I0
I0
I0
I0
I5
I5
I8
I7
I0
I9
I3
I3
I8
I7
I0
I9
I4
I4
I8
I7
I0
I9
tp80
a.