(lp0
(I5
I5
I5
I20
I0
I22
I23
I0
I0
I0
I0
I0
I20
I0
I22
I23
I24
I24
I0
I0
I0
I20
I21
I21
I18
I0
I0
I0
I0
I0
I0
I17
I17
I18
I19
I19
I0
I0
I16
I16
I16
I13
I1
I1
I15
I3
I0
I11
I0
I0
I13
I0
I0
I15
I3
I0
I11
I12
I12
I13
I14
I14
I15
I2
I4
I7
I7
I8
I9
I9
I9
I10
I2
I4
I6
I6
I8
I0
I0
I0
I10
tp1
a(I5
I5
I5
I20
I0
I22
I23
I0
I0
I0
I0
I0
I20
I0
I22
I23
I24
I24
I0
I0
I0
I20
I21
I21
I18
I0
I0
I0
I0
I0
I0
I17
I17
I18
I19
I19
I0
I0
I16
I16
I16
I13
I1
I1
I15
I3
I0
I11
I0
I0
I13
I0
I0
I15
I3
I4
I11
I12
I12
I13
I14
I14
I15
I2
I4
I7
I7
I8
I9
I9
I9
I10
I2
I0
I6
I6
I8
I0
I0
I0
I10
tp2
a(I5
I5
I5
I20
I0
I22
I23
I0
I0
I0
I0
I0
I20
I0
I22
I23
I24
I24
I0
I0
I0
I20
I21
I21
I18
I0
I0
I0
I0
I0
I0
I17
I17
I18
I19
I19
I0
I0
I16
I16
I16
I13
I1
I1
I15
I3
I4
I11
I0
I0
I13
I0
I0
I15
I3
I4
I11
I12
I12
I13
I14
I14
I15
I2
I0
I7
I7
I8
I9
I9
I9
I10
I2
I0
I6
I6
I8
I0
I0
I0
I10
tp3
a(I5
I5
I5
I20
I0
I22
I23
I0
I0
I0
I0
I0
I20
I0
I22
I23
I24
I24
I0
I0
I0
I20
I21
I21
I18
I0
I0
I0
I0
I0
I0
I17
I17
I18
I19
I19
I0
I0
I16
I16
I16
I13
I1
I1
I15
I3
I4
I11
I0
I0
I13
I0
I0
I15
I3
I4
I11
I12
I12
I13
I14
I14
I15
I2
I7
I7
I0
I8
I9
I9
I9
I10
I2
I0
I6
I6
I8
I0
I0
I0
I10
tp4
a(I5
I5
I5
I20
I0
I22
I23
I0
I0
I0
I0
I0
I20
I0
I22
I23
I24
I24
I0
I0
I0
I20
I21
I21
I18
I0
I0
I0
I0
I0
I0
I17
I17
I18
I19
I19
I3
I0
I16
I16
I16
I13
I1
I1
I15
I3
I4
I11
I0
I0
I13
I0
I0
I15
I0
I4
I11
I12
I12
I13
I14
I14
I15
I2
I7
I7
I0
I8
I9
I9
I9
I10
I2
I0
I6
I6
I8
I0
I0
I0
I10
tp5
a(I5
I5
I5
I20
I0
I22
I23
I0
I0
I0
I0
I0
I20
I0
I22
I23
I24
I24
I0
I0
I0
I20
I21
I21
I18
I0
I0
I0
I0
I0
I0
I17
I17
I18
I19
I19
I3
I0
I16
I16
I16
I13
I1
I1
I15
I3
I4
I11
I0
I0
I13
I0
I0
I15
I2
I4
I11
I12
I12
I13
I14
I14
I15
I2
I7
I7
I0
I8
I9
I9
I9
I10
I0
I0
I6
I6
I8
I0
I0
I0
I10
tp6
a(I5
I5
I5
I20
I0
I22
I23
I0
I0
I0
I0
I0
I20
I0
I22
I23
I24
I24
I0
I0
I0
I20
I21
I21
I18
I0
I0
I3
I0
I0
I0
I17
I17
I18
I19
I19
I3
I0
I16
I16
I16
I13
I1
I1
I15
I0
I4
I11
I0
I0
I13
I0
I0
I15
I2
I4
I11
I12
I12
I13
I14
I14
I15
I2
I7
I7
I0
I8
I9
I9
I9
I10
I0
I0
I6
I6
I8
I0
I0
I0
I10
tp7
a(I5
I5
I5
I20
I0
I22
I23
I0
I0
I0
I0
I0
I20
I0
I22
I23
I24
I24
I0
I0
I0
I20
I21
I21
I18
I0
I0
I3
I0
I0
I0
I17
I17
I18
I19
I19
I3
I0
I16
I16
I16
I13
I1
I1
I15
I2
I4
I11
I0
I0
I13
I0
I0
I15
I2
I4
I11
I12
I12
I13
I14
I14
I15
I0
I7
I7
I0
I8
I9
I9
I9
I10
I0
I0
I6
I6
I8
I0
I0
I0
I10
tp8
a(I5
I5
I5
I20
I0
I22
I23
I0
I0
I0
I0
I0
I20
I0
I22
I23
I24
I24
I0
I0
I0
I20
I21
I21
I18
I0
I0
I3
I0
I0
I0
I17
I17
I18
I19
I19
I3
I0
I16
I16
I16
I13
I1
I1
I15
I2
I4
I11
I0
I0
I13
I0
I0
I15
I2
I4
I11
I12
I12
I13
I14
I14
I15
I7
I7
I0
I0
I8
I9
I9
I9
I10
I0
I0
I6
I6
I8
I0
I0
I0
I10
tp9
a(I5
I5
I5
I20
I0
I22
I23
I0
I0
I0
I0
I0
I20
I0
I22
I23
I24
I24
I0
I0
I0
I20
I21
I21
I18
I0
I0
I3
I0
I0
I0
I17
I17
I18
I19
I19
I3
I0
I16
I16
I16
I13
I1
I1
I15
I2
I4
I0
I0
I0
I13
I0
I0
I15
I2
I4
I11
I12
I12
I13
I14
I14
I15
I7
I7
I11
I0
I8
I9
I9
I9
I10
I0
I0
I6
I6
I8
I0
I0
I0
I10
tp10
a(I5
I5
I5
I20
I0
I22
I23
I0
I0
I0
I0
I0
I20
I0
I22
I23
I24
I24
I0
I0
I0
I20
I21
I21
I18
I0
I0
I3
I0
I0
I0
I17
I17
I18
I19
I19
I3
I0
I16
I16
I16
I13
I1
I1
I15
I2
I4
I0
I0
I0
I13
I0
I0
I15
I2
I4
I11
I12
I12
I13
I14
I14
I15
I7
I7
I11
I0
I8
I9
I9
I9
I10
I0
I6
I6
I0
I8
I0
I0
I0
I10
tp11
a(I5
I5
I5
I20
I0
I22
I23
I0
I0
I0
I0
I0
I20
I0
I22
I23
I24
I24
I0
I0
I0
I20
I21
I21
I18
I0
I0
I3
I0
I0
I0
I17
I17
I18
I19
I19
I3
I0
I16
I16
I16
I13
I1
I1
I15
I2
I4
I0
I0
I0
I13
I0
I0
I15
I2
I4
I11
I12
I12
I13
I14
I14
I15
I7
I7
I11
I0
I8
I9
I9
I9
I10
I6
I6
I0
I0
I8
I0
I0
I0
I10
tp12
a(I5
I5
I5
I20
I0
I22
I23
I0
I0
I0
I0
I0
I20
I0
I22
I23
I24
I24
I0
I0
I0
I20
I21
I21
I18
I0
I0
I3
I0
I0
I0
I17
I17
I18
I19
I19
I3
I0
I16
I16
I16
I13
I1
I1
I15
I2
I4
I0
I0
I0
I13
I0
I0
I15
I2
I4
I0
I12
I12
I13
I14
I14
I15
I7
I7
I11
I0
I8
I9
I9
I9
I10
I6
I6
I11
I0
I8
I0
I0
I0
I10
tp13
a(I5
I5
I5
I20
I0
I22
I23
I0
I0
I0
I0
I0
I20
I0
I22
I23
I24
I24
I0
I0
I0
I20
I21
I21
I18
I0
I0
I3
I0
I0
I0
I17
I17
I18
I19
I19
I3
I0
I16
I16
I16
I13
I1
I1
I15
I2
I4
I0
I0
I0
I13
I0
I0
I15
I2
I4
I12
I12
I0
I13
I14
I14
I15
I7
I7
I11
I0
I8
I9
I9
I9
I10
I6
I6
I11
I0
I8
I0
I0
I0
I10
tp14
a(I5
I5
I5
I20
I0
I22
I23
I0
I0
I0
I0
I0
I20
I0
I22
I23
I24
I24
I0
I0
I0
I20
I21
I21
I18
I0
I0
I3
I0
I0
I0
I17
I17
I18
I19
I19
I3
I0
I16
I16
I16
I13
I1
I1
I15
I2
I4
I0
I0
I0
I13
I0
I0
I15
I2
I4
I12
I12
I8
I13
I14
I14
I15
I7
I7
I11
I0
I8
I9
I9
I9
I10
I6
I6
I11
I0
I0
I0
I0
I0
I10
tp15
a(I5
I5
I5
I20
I0
I22
I23
I0
I0
I0
I0
I0
I20
I0
I22
I23
I24
I24
I0
I0
I0
I20
I21
I21
I18
I0
I0
I3
I0
I0
I0
I17
I17
I18
I19
I19
I3
I0
I16
I16
I16
I13
I1
I1
I15
I2
I4
I0
I0
I8
I13
I0
I0
I15
I2
I4
I12
I12
I8
I13
I14
I14
I15
I7
I7
I11
I0
I0
I9
I9
I9
I10
I6
I6
I11
I0
I0
I0
I0
I0
I10
tp16
a(I5
I5
I5
I20
I0
I22
I23
I0
I0
I0
I0
I0
I20
I0
I22
I23
I24
I24
I0
I0
I0
I20
I21
I21
I18
I0
I0
I3
I0
I0
I0
I17
I17
I18
I19
I19
I3
I0
I16
I16
I16
I13
I1
I1
I15
I2
I4
I0
I0
I8
I13
I0
I0
I15
I2
I4
I12
I12
I8
I13
I14
I14
I15
I7
I7
I11
I0
I9
I9
I9
I0
I10
I6
I6
I11
I0
I0
I0
I0
I0
I10
tp17
a(I5
I5
I5
I20
I0
I22
I23
I0
I0
I0
I0
I0
I20
I0
I22
I23
I24
I24
I0
I0
I0
I20
I21
I21
I18
I0
I0
I3
I0
I0
I0
I17
I17
I18
I19
I19
I3
I0
I16
I16
I16
I13
I1
I1
I15
I2
I4
I0
I0
I8
I13
I0
I0
I15
I2
I4
I12
I12
I8
I13
I14
I14
I15
I7
I7
I11
I9
I9
I9
I0
I0
I10
I6
I6
I11
I0
I0
I0
I0
I0
I10
tp18
a(I5
I5
I5
I20
I0
I22
I23
I0
I0
I0
I0
I0
I20
I0
I22
I23
I24
I24
I0
I0
I0
I20
I21
I21
I18
I0
I0
I3
I0
I0
I0
I17
I17
I18
I19
I19
I3
I4
I16
I16
I16
I13
I1
I1
I15
I2
I4
I0
I0
I8
I13
I0
I0
I15
I2
I0
I12
I12
I8
I13
I14
I14
I15
I7
I7
I11
I9
I9
I9
I0
I0
I10
I6
I6
I11
I0
I0
I0
I0
I0
I10
tp19
a(I5
I5
I5
I20
I0
I22
I23
I0
I0
I0
I0
I0
I20
I0
I22
I23
I24
I24
I0
I0
I0
I20
I21
I21
I18
I0
I0
I3
I0
I0
I0
I17
I17
I18
I19
I19
I3
I4
I16
I16
I16
I13
I1
I1
I15
I2
I4
I0
I0
I8
I13
I0
I0
I15
I2
I12
I12
I0
I8
I13
I14
I14
I15
I7
I7
I11
I9
I9
I9
I0
I0
I10
I6
I6
I11
I0
I0
I0
I0
I0
I10
tp20
a(I5
I5
I5
I20
I0
I22
I23
I0
I0
I0
I0
I0
I20
I0
I22
I23
I24
I24
I3
I0
I0
I20
I21
I21
I18
I0
I0
I3
I0
I0
I0
I17
I17
I18
I19
I19
I0
I4
I16
I16
I16
I13
I1
I1
I15
I2
I4
I0
I0
I8
I13
I0
I0
I15
I2
I12
I12
I0
I8
I13
I14
I14
I15
I7
I7
I11
I9
I9
I9
I0
I0
I10
I6
I6
I11
I0
I0
I0
I0
I0
I10
tp21
a(I5
I5
I5
I20
I0
I22
I23
I0
I0
I0
I0
I0
I20
I0
I22
I23
I24
I24
I3
I0
I0
I20
I21
I21
I18
I0
I0
I3
I0
I0
I0
I17
I17
I18
I19
I19
I2
I4
I16
I16
I16
I13
I1
I1
I15
I2
I4
I0
I0
I8
I13
I0
I0
I15
I0
I12
I12
I0
I8
I13
I14
I14
I15
I7
I7
I11
I9
I9
I9
I0
I0
I10
I6
I6
I11
I0
I0
I0
I0
I0
I10
tp22
a(I5
I5
I5
I20
I0
I22
I23
I0
I0
I0
I0
I0
I20
I0
I22
I23
I24
I24
I3
I0
I0
I20
I21
I21
I18
I0
I0
I3
I0
I0
I0
I17
I17
I18
I19
I19
I2
I4
I16
I16
I16
I13
I1
I1
I15
I2
I4
I0
I0
I8
I13
I0
I0
I15
I12
I12
I0
I0
I8
I13
I14
I14
I15
I7
I7
I11
I9
I9
I9
I0
I0
I10
I6
I6
I11
I0
I0
I0
I0
I0
I10
tp23
a(I5
I5
I5
I20
I0
I22
I23
I0
I0
I0
I0
I0
I20
I0
I22
I23
I24
I24
I3
I0
I0
I20
I21
I21
I18
I0
I0
I3
I0
I0
I0
I17
I17
I18
I19
I19
I2
I4
I16
I16
I16
I13
I1
I1
I15
I2
I4
I0
I0
I8
I13
I0
I0
I15
I12
I12
I11
I0
I8
I13
I14
I14
I15
I7
I7
I11
I9
I9
I9
I0
I0
I10
I6
I6
I0
I0
I0
I0
I0
I0
I10
tp24
a(I5
I5
I5
I20
I0
I22
I23
I0
I0
I0
I0
I0
I20
I0
I22
I23
I24
I24
I3
I0
I0
I20
I21
I21
I18
I0
I0
I3
I0
I0
I0
I17
I17
I18
I19
I19
I2
I4
I16
I16
I16
I13
I1
I1
I15
I2
I4
I11
I0
I8
I13
I0
I0
I15
I12
I12
I11
I0
I8
I13
I14
I14
I15
I7
I7
I0
I9
I9
I9
I0
I0
I10
I6
I6
I0
I0
I0
I0
I0
I0
I10
tp25
a(I5
I5
I5
I20
I0
I22
I23
I0
I0
I0
I0
I0
I20
I0
I22
I23
I24
I24
I3
I0
I0
I20
I21
I21
I18
I0
I0
I3
I0
I0
I0
I17
I17
I18
I19
I19
I2
I4
I16
I16
I16
I13
I1
I1
I15
I2
I4
I11
I0
I8
I13
I0
I0
I15
I12
I12
I11
I0
I8
I13
I14
I14
I15
I7
I7
I9
I9
I9
I0
I0
I0
I10
I6
I6
I0
I0
I0
I0
I0
I0
I10
tp26
a(I5
I5
I5
I20
I0
I22
I23
I0
I0
I0
I0
I0
I20
I0
I22
I23
I24
I24
I3
I0
I0
I20
I21
I21
I18
I0
I0
I3
I0
I0
I0
I17
I17
I18
I19
I19
I2
I4
I16
I16
I16
I0
I1
I1
I15
I2
I4
I11
I0
I8
I13
I0
I0
I15
I12
I12
I11
I0
I8
I13
I14
I14
I15
I7
I7
I9
I9
I9
I13
I0
I0
I10
I6
I6
I0
I0
I0
I0
I0
I0
I10
tp27
a(I5
I5
I5
I20
I0
I22
I23
I0
I0
I0
I0
I0
I20
I0
I22
I23
I24
I24
I3
I0
I0
I20
I21
I21
I18
I0
I0
I3
I0
I0
I0
I17
I17
I18
I19
I19
I2
I4
I16
I16
I16
I1
I1
I0
I15
I2
I4
I11
I0
I8
I13
I0
I0
I15
I12
I12
I11
I0
I8
I13
I14
I14
I15
I7
I7
I9
I9
I9
I13
I0
I0
I10
I6
I6
I0
I0
I0
I0
I0
I0
I10
tp28
a(I5
I5
I5
I20
I0
I22
I23
I0
I0
I0
I0
I0
I20
I0
I22
I23
I24
I24
I3
I0
I0
I20
I21
I21
I18
I0
I0
I3
I4
I0
I0
I17
I17
I18
I19
I19
I2
I4
I16
I16
I16
I1
I1
I0
I15
I2
I0
I11
I0
I8
I13
I0
I0
I15
I12
I12
I11
I0
I8
I13
I14
I14
I15
I7
I7
I9
I9
I9
I13
I0
I0
I10
I6
I6
I0
I0
I0
I0
I0
I0
I10
tp29
a(I5
I5
I5
I20
I0
I22
I23
I0
I0
I0
I0
I0
I20
I0
I22
I23
I24
I24
I3
I4
I0
I20
I21
I21
I18
I0
I0
I3
I4
I0
I0
I17
I17
I18
I19
I19
I2
I0
I16
I16
I16
I1
I1
I0
I15
I2
I0
I11
I0
I8
I13
I0
I0
I15
I12
I12
I11
I0
I8
I13
I14
I14
I15
I7
I7
I9
I9
I9
I13
I0
I0
I10
I6
I6
I0
I0
I0
I0
I0
I0
I10
tp30
a(I5
I5
I5
I20
I0
I22
I23
I0
I0
I0
I0
I0
I20
I0
I22
I23
I24
I24
I3
I4
I0
I20
I21
I21
I18
I0
I0
I3
I4
I0
I0
I17
I17
I18
I19
I19
I2
I16
I16
I16
I0
I1
I1
I0
I15
I2
I0
I11
I0
I8
I13
I0
I0
I15
I12
I12
I11
I0
I8
I13
I14
I14
I15
I7
I7
I9
I9
I9
I13
I0
I0
I10
I6
I6
I0
I0
I0
I0
I0
I0
I10
tp31
a(I5
I5
I5
I20
I0
I22
I23
I0
I0
I0
I0
I0
I20
I0
I22
I23
I24
I24
I3
I4
I0
I20
I21
I21
I18
I0
I0
I3
I4
I0
I0
I17
I17
I18
I19
I19
I2
I16
I16
I16
I1
I1
I0
I0
I15
I2
I0
I11
I0
I8
I13
I0
I0
I15
I12
I12
I11
I0
I8
I13
I14
I14
I15
I7
I7
I9
I9
I9
I13
I0
I0
I10
I6
I6
I0
I0
I0
I0
I0
I0
I10
tp32
a(I5
I5
I5
I20
I0
I22
I23
I0
I0
I0
I0
I0
I20
I0
I22
I23
I24
I24
I3
I4
I0
I20
I21
I21
I0
I0
I0
I3
I4
I0
I0
I17
I17
I18
I19
I19
I2
I16
I16
I16
I1
I1
I18
I0
I15
I2
I0
I11
I0
I8
I13
I0
I0
I15
I12
I12
I11
I0
I8
I13
I14
I14
I15
I7
I7
I9
I9
I9
I13
I0
I0
I10
I6
I6
I0
I0
I0
I0
I0
I0
I10
tp33
a(I5
I5
I5
I20
I0
I22
I23
I0
I0
I0
I0
I0
I20
I0
I22
I23
I24
I24
I3
I4
I0
I20
I21
I21
I0
I0
I0
I3
I4
I0
I0
I17
I17
I0
I19
I19
I2
I16
I16
I16
I1
I1
I18
I0
I15
I2
I0
I11
I0
I8
I13
I18
I0
I15
I12
I12
I11
I0
I8
I13
I14
I14
I15
I7
I7
I9
I9
I9
I13
I0
I0
I10
I6
I6
I0
I0
I0
I0
I0
I0
I10
tp34
a(I5
I5
I5
I20
I0
I22
I23
I0
I0
I0
I0
I0
I20
I0
I22
I23
I24
I24
I3
I4
I0
I20
I21
I21
I0
I0
I0
I3
I4
I0
I0
I17
I17
I19
I19
I0
I2
I16
I16
I16
I1
I1
I18
I0
I15
I2
I0
I11
I0
I8
I13
I18
I0
I15
I12
I12
I11
I0
I8
I13
I14
I14
I15
I7
I7
I9
I9
I9
I13
I0
I0
I10
I6
I6
I0
I0
I0
I0
I0
I0
I10
tp35
a(I5
I5
I5
I20
I0
I22
I23
I0
I0
I0
I0
I0
I20
I0
I22
I23
I24
I24
I3
I4
I0
I20
I21
I21
I0
I0
I0
I3
I4
I0
I0
I17
I17
I19
I19
I15
I2
I16
I16
I16
I1
I1
I18
I0
I15
I2
I0
I11
I0
I8
I13
I18
I0
I15
I12
I12
I11
I0
I8
I13
I14
I14
I0
I7
I7
I9
I9
I9
I13
I0
I0
I10
I6
I6
I0
I0
I0
I0
I0
I0
I10
tp36
a(I5
I5
I5
I20
I0
I22
I23
I0
I0
I0
I0
I0
I20
I0
I22
I23
I24
I24
I3
I4
I0
I20
I21
I21
I0
I0
I0
I3
I4
I0
I0
I17
I17
I19
I19
I15
I2
I16
I16
I16
I1
I1
I18
I0
I15
I2
I0
I11
I0
I8
I13
I18
I0
I15
I12
I12
I11
I0
I8
I13
I0
I14
I14
I7
I7
I9
I9
I9
I13
I0
I0
I10
I6
I6
I0
I0
I0
I0
I0
I0
I10
tp37
a(I5
I5
I5
I20
I0
I22
I23
I0
I0
I0
I0
I0
I20
I0
I22
I23
I24
I24
I3
I4
I0
I20
I21
I21
I0
I0
I0
I3
I4
I0
I0
I17
I17
I19
I19
I15
I2
I16
I16
I16
I1
I1
I0
I0
I15
I2
I0
I11
I0
I8
I13
I18
I0
I15
I12
I12
I11
I0
I8
I13
I18
I14
I14
I7
I7
I9
I9
I9
I13
I0
I0
I10
I6
I6
I0
I0
I0
I0
I0
I0
I10
tp38
a(I5
I5
I5
I20
I0
I22
I0
I0
I0
I0
I0
I0
I20
I0
I22
I23
I24
I24
I3
I4
I0
I20
I21
I21
I23
I0
I0
I3
I4
I0
I0
I17
I17
I19
I19
I15
I2
I16
I16
I16
I1
I1
I0
I0
I15
I2
I0
I11
I0
I8
I13
I18
I0
I15
I12
I12
I11
I0
I8
I13
I18
I14
I14
I7
I7
I9
I9
I9
I13
I0
I0
I10
I6
I6
I0
I0
I0
I0
I0
I0
I10
tp39
a(I5
I5
I5
I20
I0
I22
I0
I0
I0
I0
I0
I0
I20
I0
I22
I23
I24
I24
I3
I4
I0
I20
I21
I21
I23
I0
I0
I3
I4
I0
I17
I17
I0
I19
I19
I15
I2
I16
I16
I16
I1
I1
I0
I0
I15
I2
I0
I11
I0
I8
I13
I18
I0
I15
I12
I12
I11
I0
I8
I13
I18
I14
I14
I7
I7
I9
I9
I9
I13
I0
I0
I10
I6
I6
I0
I0
I0
I0
I0
I0
I10
tp40
a(I5
I5
I5
I20
I0
I22
I0
I0
I0
I0
I0
I0
I20
I0
I22
I23
I24
I24
I3
I4
I0
I20
I21
I21
I23
I0
I0
I3
I4
I0
I17
I17
I19
I19
I0
I15
I2
I16
I16
I16
I1
I1
I0
I0
I15
I2
I0
I11
I0
I8
I13
I18
I0
I15
I12
I12
I11
I0
I8
I13
I18
I14
I14
I7
I7
I9
I9
I9
I13
I0
I0
I10
I6
I6
I0
I0
I0
I0
I0
I0
I10
tp41
a(I5
I5
I5
I20
I0
I22
I0
I0
I0
I0
I0
I0
I20
I0
I22
I23
I24
I24
I3
I4
I0
I20
I21
I21
I23
I0
I0
I3
I4
I17
I17
I0
I19
I19
I0
I15
I2
I16
I16
I16
I1
I1
I0
I0
I15
I2
I0
I11
I0
I8
I13
I18
I0
I15
I12
I12
I11
I0
I8
I13
I18
I14
I14
I7
I7
I9
I9
I9
I13
I0
I0
I10
I6
I6
I0
I0
I0
I0
I0
I0
I10
tp42
a(I5
I5
I5
I20
I0
I22
I0
I0
I0
I0
I0
I0
I20
I0
I22
I23
I24
I24
I3
I4
I0
I20
I21
I21
I23
I0
I0
I3
I4
I17
I17
I19
I19
I0
I0
I15
I2
I16
I16
I16
I1
I1
I0
I0
I15
I2
I0
I11
I0
I8
I13
I18
I0
I15
I12
I12
I11
I0
I8
I13
I18
I14
I14
I7
I7
I9
I9
I9
I13
I0
I0
I10
I6
I6
I0
I0
I0
I0
I0
I0
I10
tp43
a(I5
I5
I5
I20
I0
I22
I0
I0
I0
I0
I0
I0
I20
I0
I22
I0
I24
I24
I3
I4
I0
I20
I21
I21
I23
I0
I0
I3
I4
I17
I17
I19
I19
I23
I0
I15
I2
I16
I16
I16
I1
I1
I0
I0
I15
I2
I0
I11
I0
I8
I13
I18
I0
I15
I12
I12
I11
I0
I8
I13
I18
I14
I14
I7
I7
I9
I9
I9
I13
I0
I0
I10
I6
I6
I0
I0
I0
I0
I0
I0
I10
tp44
a(I5
I5
I5
I20
I0
I22
I0
I0
I0
I0
I0
I0
I20
I0
I22
I0
I24
I24
I3
I4
I0
I20
I21
I21
I23
I0
I15
I3
I4
I17
I17
I19
I19
I23
I0
I15
I2
I16
I16
I16
I1
I1
I0
I0
I15
I2
I0
I11
I0
I8
I13
I18
I0
I0
I12
I12
I11
I0
I8
I13
I18
I14
I14
I7
I7
I9
I9
I9
I13
I0
I0
I10
I6
I6
I0
I0
I0
I0
I0
I0
I10
tp45
a(I5
I5
I5
I20
I0
I22
I0
I0
I0
I0
I0
I0
I20
I0
I22
I24
I24
I0
I3
I4
I0
I20
I21
I21
I23
I0
I15
I3
I4
I17
I17
I19
I19
I23
I0
I15
I2
I16
I16
I16
I1
I1
I0
I0
I15
I2
I0
I11
I0
I8
I13
I18
I0
I0
I12
I12
I11
I0
I8
I13
I18
I14
I14
I7
I7
I9
I9
I9
I13
I0
I0
I10
I6
I6
I0
I0
I0
I0
I0
I0
I10
tp46
a(I5
I5
I5
I20
I0
I22
I0
I0
I0
I0
I0
I0
I20
I0
I22
I24
I24
I15
I3
I4
I0
I20
I21
I21
I23
I0
I15
I3
I4
I17
I17
I19
I19
I23
I0
I15
I2
I16
I16
I16
I1
I1
I0
I0
I0
I2
I0
I11
I0
I8
I13
I18
I0
I0
I12
I12
I11
I0
I8
I13
I18
I14
I14
I7
I7
I9
I9
I9
I13
I0
I0
I10
I6
I6
I0
I0
I0
I0
I0
I0
I10
tp47
a.