(lp0
S'(24, 24, 25, 25, 21, 0, 0, 23, 0, 17, 20, 20, 20, 21, 22, 22, 23, 0, 17, 0, 18, 18, 14, 15, 0, 19, 19, 0, 0, 13, 10, 14, 15, 16, 16, 16, 1, 1, 13, 10, 0, 0, 0, 0, 0, 0, 7, 0, 10, 11, 11, 12, 12, 26, 2, 7, 8, 8, 4, 9, 9, 9, 26, 2, 0, 5, 5, 4, 6, 6, 0, 26, 2, 3, 3, 3, 4, 0, 0, 0, 0)'
p1
a(I24
I24
I25
I25
I21
I0
I0
I23
I0
I17
I20
I20
I20
I21
I22
I22
I23
I0
I17
I0
I18
I18
I0
I15
I0
I19
I19
I0
I0
I13
I10
I14
I15
I16
I16
I16
I1
I1
I13
I10
I14
I0
I0
I0
I0
I0
I7
I0
I10
I11
I11
I12
I12
I26
I2
I7
I8
I8
I4
I9
I9
I9
I26
I2
I0
I5
I5
I4
I6
I6
I0
I26
I2
I3
I3
I3
I4
I0
I0
I0
I0
tp2
a(I24
I24
I25
I25
I21
I0
I0
I23
I0
I17
I20
I20
I20
I21
I22
I22
I23
I0
I17
I0
I0
I18
I18
I15
I0
I19
I19
I0
I0
I13
I10
I14
I15
I16
I16
I16
I1
I1
I13
I10
I14
I0
I0
I0
I0
I0
I7
I0
I10
I11
I11
I12
I12
I26
I2
I7
I8
I8
I4
I9
I9
I9
I26
I2
I0
I5
I5
I4
I6
I6
I0
I26
I2
I3
I3
I3
I4
I0
I0
I0
I0
tp3
a(I24
I24
I25
I25
I21
I0
I0
I23
I0
I17
I20
I20
I20
I21
I22
I22
I23
I0
I17
I0
I0
I18
I18
I0
I0
I19
I19
I0
I0
I13
I10
I14
I15
I16
I16
I16
I1
I1
I13
I10
I14
I15
I0
I0
I0
I0
I7
I0
I10
I11
I11
I12
I12
I26
I2
I7
I8
I8
I4
I9
I9
I9
I26
I2
I0
I5
I5
I4
I6
I6
I0
I26
I2
I3
I3
I3
I4
I0
I0
I0
I0
tp4
a(I24
I24
I25
I25
I21
I0
I0
I23
I0
I17
I20
I20
I20
I21
I22
I22
I23
I0
I17
I0
I0
I0
I18
I18
I0
I19
I19
I0
I0
I13
I10
I14
I15
I16
I16
I16
I1
I1
I13
I10
I14
I15
I0
I0
I0
I0
I7
I0
I10
I11
I11
I12
I12
I26
I2
I7
I8
I8
I4
I9
I9
I9
I26
I2
I0
I5
I5
I4
I6
I6
I0
I26
I2
I3
I3
I3
I4
I0
I0
I0
I0
tp5
a(I24
I24
I25
I25
I21
I0
I0
I23
I0
I17
I20
I20
I20
I21
I22
I22
I23
I0
I17
I0
I0
I0
I0
I18
I18
I19
I19
I0
I0
I13
I10
I14
I15
I16
I16
I16
I1
I1
I13
I10
I14
I15
I0
I0
I0
I0
I7
I0
I10
I11
I11
I12
I12
I26
I2
I7
I8
I8
I4
I9
I9
I9
I26
I2
I0
I5
I5
I4
I6
I6
I0
I26
I2
I3
I3
I3
I4
I0
I0
I0
I0
tp6
a(I24
I24
I25
I25
I21
I0
I0
I23
I0
I17
I20
I20
I20
I21
I22
I22
I23
I0
I17
I0
I0
I0
I14
I18
I18
I19
I19
I0
I0
I13
I10
I14
I15
I16
I16
I16
I1
I1
I13
I10
I0
I15
I0
I0
I0
I0
I7
I0
I10
I11
I11
I12
I12
I26
I2
I7
I8
I8
I4
I9
I9
I9
I26
I2
I0
I5
I5
I4
I6
I6
I0
I26
I2
I3
I3
I3
I4
I0
I0
I0
I0
tp7
a(I24
I24
I25
I25
I21
I0
I0
I23
I0
I17
I20
I20
I20
I21
I22
I22
I23
I0
I17
I0
I0
I10
I14
I18
I18
I19
I19
I0
I0
I13
I10
I14
I15
I16
I16
I16
I1
I1
I13
I10
I0
I15
I0
I0
I0
I0
I7
I0
I0
I11
I11
I12
I12
I26
I2
I7
I8
I8
I4
I9
I9
I9
I26
I2
I0
I5
I5
I4
I6
I6
I0
I26
I2
I3
I3
I3
I4
I0
I0
I0
I0
tp8
a(I24
I24
I25
I25
I21
I0
I0
I23
I0
I17
I20
I20
I20
I21
I22
I22
I23
I0
I17
I0
I0
I10
I14
I18
I18
I19
I19
I0
I0
I13
I10
I14
I15
I16
I16
I16
I1
I1
I13
I10
I0
I15
I0
I0
I0
I0
I7
I0
I11
I11
I0
I12
I12
I26
I2
I7
I8
I8
I4
I9
I9
I9
I26
I2
I0
I5
I5
I4
I6
I6
I0
I26
I2
I3
I3
I3
I4
I0
I0
I0
I0
tp9
a(I24
I24
I25
I25
I21
I0
I0
I23
I0
I17
I20
I20
I20
I21
I22
I22
I23
I0
I17
I0
I0
I10
I14
I18
I18
I19
I19
I0
I0
I13
I10
I14
I0
I16
I16
I16
I1
I1
I13
I10
I0
I15
I0
I0
I0
I0
I7
I0
I11
I11
I15
I12
I12
I26
I2
I7
I8
I8
I4
I9
I9
I9
I26
I2
I0
I5
I5
I4
I6
I6
I0
I26
I2
I3
I3
I3
I4
I0
I0
I0
I0
tp10
a(I24
I24
I25
I25
I21
I0
I0
I23
I0
I17
I20
I20
I20
I21
I22
I22
I23
I0
I17
I0
I0
I10
I14
I18
I18
I19
I19
I0
I0
I13
I10
I14
I16
I16
I16
I0
I1
I1
I13
I10
I0
I15
I0
I0
I0
I0
I7
I0
I11
I11
I15
I12
I12
I26
I2
I7
I8
I8
I4
I9
I9
I9
I26
I2
I0
I5
I5
I4
I6
I6
I0
I26
I2
I3
I3
I3
I4
I0
I0
I0
I0
tp11
a(I24
I24
I25
I25
I21
I0
I0
I23
I0
I17
I20
I20
I20
I21
I22
I22
I23
I0
I17
I0
I0
I10
I14
I18
I18
I19
I19
I0
I0
I13
I10
I14
I16
I16
I16
I0
I1
I1
I13
I10
I0
I15
I0
I0
I26
I0
I7
I0
I11
I11
I15
I12
I12
I26
I2
I7
I8
I8
I4
I9
I9
I9
I26
I2
I0
I5
I5
I4
I6
I6
I0
I0
I2
I3
I3
I3
I4
I0
I0
I0
I0
tp12
a(I24
I24
I25
I25
I21
I0
I0
I23
I0
I17
I20
I20
I20
I21
I22
I22
I23
I0
I17
I0
I0
I10
I14
I18
I18
I19
I19
I0
I0
I13
I10
I14
I16
I16
I16
I26
I1
I1
I13
I10
I0
I15
I0
I0
I26
I0
I7
I0
I11
I11
I15
I12
I12
I26
I2
I7
I8
I8
I4
I9
I9
I9
I0
I2
I0
I5
I5
I4
I6
I6
I0
I0
I2
I3
I3
I3
I4
I0
I0
I0
I0
tp13
a(I24
I24
I25
I25
I21
I0
I0
I23
I0
I17
I20
I20
I20
I21
I22
I22
I23
I0
I17
I0
I0
I10
I14
I18
I18
I19
I19
I0
I0
I13
I10
I14
I16
I16
I16
I26
I1
I1
I13
I10
I0
I15
I0
I0
I26
I0
I7
I0
I11
I11
I15
I12
I12
I26
I2
I7
I8
I8
I4
I0
I9
I9
I9
I2
I0
I5
I5
I4
I6
I6
I0
I0
I2
I3
I3
I3
I4
I0
I0
I0
I0
tp14
a(I24
I24
I25
I25
I21
I0
I0
I23
I0
I17
I20
I20
I20
I21
I22
I22
I23
I0
I17
I0
I0
I10
I14
I18
I18
I19
I19
I0
I0
I13
I10
I14
I16
I16
I16
I26
I1
I1
I13
I10
I0
I0
I0
I0
I26
I0
I7
I0
I11
I11
I15
I12
I12
I26
I2
I7
I8
I8
I4
I15
I9
I9
I9
I2
I0
I5
I5
I4
I6
I6
I0
I0
I2
I3
I3
I3
I4
I0
I0
I0
I0
tp15
a(I24
I24
I25
I25
I21
I0
I0
I23
I0
I0
I20
I20
I20
I21
I22
I22
I23
I0
I17
I0
I0
I10
I14
I18
I18
I19
I19
I17
I0
I13
I10
I14
I16
I16
I16
I26
I1
I1
I13
I10
I0
I0
I0
I0
I26
I0
I7
I0
I11
I11
I15
I12
I12
I26
I2
I7
I8
I8
I4
I15
I9
I9
I9
I2
I0
I5
I5
I4
I6
I6
I0
I0
I2
I3
I3
I3
I4
I0
I0
I0
I0
tp16
a(I24
I24
I25
I25
I21
I0
I0
I23
I0
I20
I20
I20
I0
I21
I22
I22
I23
I0
I17
I0
I0
I10
I14
I18
I18
I19
I19
I17
I0
I13
I10
I14
I16
I16
I16
I26
I1
I1
I13
I10
I0
I0
I0
I0
I26
I0
I7
I0
I11
I11
I15
I12
I12
I26
I2
I7
I8
I8
I4
I15
I9
I9
I9
I2
I0
I5
I5
I4
I6
I6
I0
I0
I2
I3
I3
I3
I4
I0
I0
I0
I0
tp17
a(I24
I24
I25
I25
I21
I0
I0
I23
I0
I20
I20
I20
I10
I21
I22
I22
I23
I0
I17
I0
I0
I10
I14
I18
I18
I19
I19
I17
I0
I13
I10
I14
I16
I16
I16
I26
I1
I1
I13
I0
I0
I0
I0
I0
I26
I0
I7
I0
I11
I11
I15
I12
I12
I26
I2
I7
I8
I8
I4
I15
I9
I9
I9
I2
I0
I5
I5
I4
I6
I6
I0
I0
I2
I3
I3
I3
I4
I0
I0
I0
I0
tp18
a(I24
I24
I25
I25
I21
I0
I0
I23
I0
I20
I20
I20
I10
I21
I22
I22
I23
I0
I17
I0
I0
I10
I14
I18
I18
I19
I19
I17
I0
I13
I10
I14
I16
I16
I16
I26
I1
I1
I13
I0
I0
I0
I0
I0
I26
I0
I7
I0
I11
I11
I15
I12
I12
I26
I2
I7
I8
I8
I4
I15
I9
I9
I9
I2
I0
I5
I5
I4
I0
I6
I6
I0
I2
I3
I3
I3
I4
I0
I0
I0
I0
tp19
a(I24
I24
I25
I25
I21
I0
I0
I23
I0
I20
I20
I20
I10
I21
I22
I22
I23
I0
I17
I0
I0
I10
I14
I18
I18
I19
I19
I17
I0
I13
I10
I14
I16
I16
I16
I26
I1
I1
I13
I0
I0
I0
I0
I0
I26
I0
I7
I0
I11
I11
I0
I12
I12
I26
I2
I7
I8
I8
I4
I15
I9
I9
I9
I2
I0
I5
I5
I4
I15
I6
I6
I0
I2
I3
I3
I3
I4
I0
I0
I0
I0
tp20
a(I24
I24
I25
I25
I21
I0
I0
I23
I0
I20
I20
I20
I10
I21
I22
I22
I23
I0
I17
I0
I0
I10
I14
I18
I18
I19
I19
I17
I0
I13
I10
I14
I16
I16
I16
I26
I1
I1
I13
I0
I0
I0
I0
I0
I26
I0
I7
I0
I11
I11
I0
I12
I12
I26
I2
I7
I8
I8
I4
I0
I9
I9
I9
I2
I0
I5
I5
I4
I15
I6
I6
I0
I2
I3
I3
I3
I4
I15
I0
I0
I0
tp21
a(I24
I24
I25
I25
I21
I0
I0
I23
I0
I20
I20
I20
I10
I21
I22
I22
I23
I0
I17
I0
I0
I10
I14
I18
I18
I19
I19
I17
I0
I13
I10
I14
I16
I16
I16
I26
I1
I1
I13
I0
I0
I0
I0
I0
I26
I0
I7
I0
I11
I11
I0
I12
I12
I26
I2
I7
I8
I8
I4
I9
I9
I9
I0
I2
I0
I5
I5
I4
I15
I6
I6
I0
I2
I3
I3
I3
I4
I15
I0
I0
I0
tp22
a(I24
I24
I25
I25
I21
I0
I0
I23
I0
I20
I20
I20
I10
I21
I22
I22
I23
I0
I17
I0
I0
I10
I14
I18
I18
I19
I19
I17
I0
I13
I10
I14
I16
I16
I16
I0
I1
I1
I13
I0
I0
I0
I0
I0
I26
I0
I7
I0
I11
I11
I0
I12
I12
I26
I2
I7
I8
I8
I4
I9
I9
I9
I26
I2
I0
I5
I5
I4
I15
I6
I6
I0
I2
I3
I3
I3
I4
I15
I0
I0
I0
tp23
a(I24
I24
I25
I25
I21
I0
I0
I23
I0
I20
I20
I20
I10
I21
I22
I22
I23
I0
I17
I0
I0
I10
I14
I18
I18
I19
I19
I17
I0
I13
I10
I14
I16
I16
I16
I0
I1
I1
I13
I0
I0
I0
I0
I0
I0
I0
I7
I0
I11
I11
I0
I12
I12
I26
I2
I7
I8
I8
I4
I9
I9
I9
I26
I2
I0
I5
I5
I4
I15
I6
I6
I26
I2
I3
I3
I3
I4
I15
I0
I0
I0
tp24
a(I24
I24
I25
I25
I21
I0
I0
I23
I0
I20
I20
I20
I10
I21
I22
I22
I23
I0
I17
I0
I13
I10
I14
I18
I18
I19
I19
I17
I0
I13
I10
I14
I16
I16
I16
I0
I1
I1
I0
I0
I0
I0
I0
I0
I0
I0
I7
I0
I11
I11
I0
I12
I12
I26
I2
I7
I8
I8
I4
I9
I9
I9
I26
I2
I0
I5
I5
I4
I15
I6
I6
I26
I2
I3
I3
I3
I4
I15
I0
I0
I0
tp25
a.