(lp0
(I0
I7
I7
I13
I13
I13
I0
I6
I6
I11
I12
I12
I1
I1
I5
I11
I0
I10
I3
I3
I5
I9
I9
I10
I2
I0
I4
I0
I8
I8
I2
I0
I4
I0
I0
I0
tp1
a(I0
I7
I7
I13
I13
I13
I6
I6
I0
I11
I12
I12
I1
I1
I5
I11
I0
I10
I3
I3
I5
I9
I9
I10
I2
I0
I4
I0
I8
I8
I2
I0
I4
I0
I0
I0
tp2
a(I0
I7
I7
I13
I13
I13
I6
I6
I5
I11
I12
I12
I1
I1
I5
I11
I0
I10
I3
I3
I0
I9
I9
I10
I2
I0
I4
I0
I8
I8
I2
I0
I4
I0
I0
I0
tp3
a(I0
I7
I7
I13
I13
I13
I6
I6
I5
I11
I12
I12
I1
I1
I5
I11
I0
I10
I3
I3
I4
I9
I9
I10
I2
I0
I4
I0
I8
I8
I2
I0
I0
I0
I0
I0
tp4
a(I7
I7
I0
I13
I13
I13
I6
I6
I5
I11
I12
I12
I1
I1
I5
I11
I0
I10
I3
I3
I4
I9
I9
I10
I2
I0
I4
I0
I8
I8
I2
I0
I0
I0
I0
I0
tp5
a(I7
I7
I5
I13
I13
I13
I6
I6
I5
I11
I12
I12
I1
I1
I0
I11
I0
I10
I3
I3
I4
I9
I9
I10
I2
I0
I4
I0
I8
I8
I2
I0
I0
I0
I0
I0
tp6
a(I7
I7
I5
I13
I13
I13
I6
I6
I5
I11
I12
I12
I1
I1
I4
I11
I0
I10
I3
I3
I4
I9
I9
I10
I2
I0
I0
I0
I8
I8
I2
I0
I0
I0
I0
I0
tp7
a(I7
I7
I5
I13
I13
I13
I6
I6
I5
I11
I12
I12
I1
I1
I4
I11
I0
I10
I3
I3
I4
I9
I9
I10
I2
I0
I0
I8
I8
I0
I2
I0
I0
I0
I0
I0
tp8
a(I7
I7
I5
I13
I13
I13
I6
I6
I5
I11
I12
I12
I1
I1
I4
I11
I0
I10
I3
I3
I4
I9
I9
I10
I2
I0
I8
I8
I0
I0
I2
I0
I0
I0
I0
I0
tp9
a(I7
I7
I5
I13
I13
I13
I6
I6
I5
I11
I12
I12
I1
I1
I4
I11
I0
I10
I3
I3
I4
I9
I9
I10
I2
I8
I8
I0
I0
I0
I2
I0
I0
I0
I0
I0
tp10
a(I7
I7
I5
I13
I13
I13
I6
I6
I5
I11
I12
I12
I1
I1
I4
I11
I0
I0
I3
I3
I4
I9
I9
I10
I2
I8
I8
I0
I0
I10
I2
I0
I0
I0
I0
I0
tp11
a(I7
I7
I5
I13
I13
I13
I6
I6
I5
I11
I12
I12
I1
I1
I4
I11
I0
I0
I3
I3
I4
I9
I9
I0
I2
I8
I8
I0
I0
I10
I2
I0
I0
I0
I0
I10
tp12
a(I7
I7
I5
I13
I13
I13
I6
I6
I5
I11
I12
I12
I1
I1
I4
I11
I0
I0
I3
I3
I4
I0
I9
I9
I2
I8
I8
I0
I0
I10
I2
I0
I0
I0
I0
I10
tp13
a(I7
I7
I5
I13
I13
I13
I6
I6
I5
I0
I12
I12
I1
I1
I4
I11
I0
I0
I3
I3
I4
I11
I9
I9
I2
I8
I8
I0
I0
I10
I2
I0
I0
I0
I0
I10
tp14
a(I7
I7
I5
I13
I13
I13
I6
I6
I5
I0
I12
I12
I1
I1
I4
I0
I0
I0
I3
I3
I4
I11
I9
I9
I2
I8
I8
I11
I0
I10
I2
I0
I0
I0
I0
I10
tp15
a(I7
I7
I5
I13
I13
I13
I6
I6
I5
I0
I12
I12
I1
I1
I4
I0
I0
I0
I3
I3
I4
I0
I9
I9
I2
I8
I8
I11
I0
I10
I2
I0
I0
I11
I0
I10
tp16
a(I7
I7
I5
I13
I13
I13
I6
I6
I5
I0
I12
I12
I1
I1
I4
I0
I0
I0
I3
I3
I4
I9
I9
I0
I2
I8
I8
I11
I0
I10
I2
I0
I0
I11
I0
I10
tp17
a(I7
I7
I5
I13
I13
I13
I6
I6
I5
I0
I12
I12
I1
I1
I4
I0
I0
I0
I3
I3
I4
I9
I9
I10
I2
I8
I8
I11
I0
I10
I2
I0
I0
I11
I0
I0
tp18
a(I7
I7
I5
I13
I13
I13
I6
I6
I5
I0
I12
I12
I1
I1
I4
I0
I0
I10
I3
I3
I4
I9
I9
I10
I2
I8
I8
I11
I0
I0
I2
I0
I0
I11
I0
I0
tp19
a(I7
I7
I5
I13
I13
I13
I6
I6
I5
I12
I12
I0
I1
I1
I4
I0
I0
I10
I3
I3
I4
I9
I9
I10
I2
I8
I8
I11
I0
I0
I2
I0
I0
I11
I0
I0
tp20
a(I7
I7
I5
I13
I13
I13
I6
I6
I5
I12
I12
I10
I1
I1
I4
I0
I0
I10
I3
I3
I4
I9
I9
I0
I2
I8
I8
I11
I0
I0
I2
I0
I0
I11
I0
I0
tp21
a(I7
I7
I5
I13
I13
I13
I6
I6
I5
I12
I12
I10
I1
I1
I4
I0
I0
I10
I3
I3
I4
I0
I9
I9
I2
I8
I8
I11
I0
I0
I2
I0
I0
I11
I0
I0
tp22
a(I7
I7
I5
I13
I13
I13
I6
I6
I5
I12
I12
I10
I1
I1
I4
I0
I0
I10
I3
I3
I4
I11
I9
I9
I2
I8
I8
I11
I0
I0
I2
I0
I0
I0
I0
I0
tp23
a(I7
I7
I5
I13
I13
I13
I6
I6
I5
I12
I12
I10
I1
I1
I4
I11
I0
I10
I3
I3
I4
I11
I9
I9
I2
I8
I8
I0
I0
I0
I2
I0
I0
I0
I0
I0
tp24
a(I7
I7
I5
I13
I13
I13
I6
I6
I5
I12
I12
I10
I1
I1
I4
I11
I0
I10
I3
I3
I4
I11
I9
I9
I2
I0
I8
I8
I0
I0
I2
I0
I0
I0
I0
I0
tp25
a(I7
I7
I5
I13
I13
I13
I6
I6
I5
I12
I12
I10
I1
I1
I4
I11
I0
I10
I3
I3
I4
I11
I9
I9
I2
I0
I0
I8
I8
I0
I2
I0
I0
I0
I0
I0
tp26
a(I7
I7
I5
I13
I13
I13
I6
I6
I5
I12
I12
I10
I1
I1
I0
I11
I0
I10
I3
I3
I4
I11
I9
I9
I2
I0
I4
I8
I8
I0
I2
I0
I0
I0
I0
I0
tp27
a(I7
I7
I5
I13
I13
I13
I6
I6
I5
I12
I12
I10
I0
I1
I1
I11
I0
I10
I3
I3
I4
I11
I9
I9
I2
I0
I4
I8
I8
I0
I2
I0
I0
I0
I0
I0
tp28
a(I7
I7
I5
I13
I13
I13
I6
I6
I5
I12
I12
I10
I0
I1
I1
I11
I0
I10
I3
I3
I4
I11
I9
I9
I2
I0
I4
I0
I8
I8
I2
I0
I0
I0
I0
I0
tp29
a(I7
I7
I5
I13
I13
I13
I6
I6
I5
I12
I12
I10
I0
I1
I1
I0
I0
I10
I3
I3
I4
I11
I9
I9
I2
I0
I4
I11
I8
I8
I2
I0
I0
I0
I0
I0
tp30
a(I7
I7
I5
I13
I13
I13
I6
I6
I5
I12
I12
I10
I0
I0
I1
I1
I0
I10
I3
I3
I4
I11
I9
I9
I2
I0
I4
I11
I8
I8
I2
I0
I0
I0
I0
I0
tp31
a(I7
I7
I5
I13
I13
I13
I6
I6
I5
I12
I12
I10
I0
I0
I0
I1
I1
I10
I3
I3
I4
I11
I9
I9
I2
I0
I4
I11
I8
I8
I2
I0
I0
I0
I0
I0
tp32
a(I7
I7
I0
I13
I13
I13
I6
I6
I5
I12
I12
I10
I0
I0
I5
I1
I1
I10
I3
I3
I4
I11
I9
I9
I2
I0
I4
I11
I8
I8
I2
I0
I0
I0
I0
I0
tp33
a(I7
I7
I13
I13
I13
I0
I6
I6
I5
I12
I12
I10
I0
I0
I5
I1
I1
I10
I3
I3
I4
I11
I9
I9
I2
I0
I4
I11
I8
I8
I2
I0
I0
I0
I0
I0
tp34
a(I7
I7
I13
I13
I13
I10
I6
I6
I5
I12
I12
I10
I0
I0
I5
I1
I1
I0
I3
I3
I4
I11
I9
I9
I2
I0
I4
I11
I8
I8
I2
I0
I0
I0
I0
I0
tp35
a.