(lp0
(I0
I0
I8
I6
I6
I9
I0
I0
I8
I0
I0
I9
I0
I0
I8
I1
I1
I9
I0
I0
I0
I7
I5
I5
I2
I3
I3
I7
I0
I0
I2
I0
I0
I7
I4
I4
tp1
a(I0
I0
I0
I6
I6
I9
I0
I0
I8
I0
I0
I9
I0
I0
I8
I1
I1
I9
I0
I0
I8
I7
I5
I5
I2
I3
I3
I7
I0
I0
I2
I0
I0
I7
I4
I4
tp2
a(I0
I0
I0
I6
I6
I9
I0
I0
I8
I0
I0
I9
I0
I0
I8
I1
I1
I9
I2
I0
I8
I7
I5
I5
I2
I3
I3
I7
I0
I0
I0
I0
I0
I7
I4
I4
tp3
a(I0
I0
I0
I6
I6
I9
I0
I0
I8
I0
I0
I9
I2
I0
I8
I1
I1
I9
I2
I0
I8
I7
I5
I5
I0
I3
I3
I7
I0
I0
I0
I0
I0
I7
I4
I4
tp4
a(I0
I0
I0
I6
I6
I9
I0
I0
I8
I0
I0
I9
I2
I0
I8
I1
I1
I9
I2
I0
I8
I7
I5
I5
I3
I3
I0
I7
I0
I0
I0
I0
I0
I7
I4
I4
tp5
a(I0
I0
I0
I6
I6
I9
I0
I0
I0
I0
I0
I9
I2
I0
I8
I1
I1
I9
I2
I0
I8
I7
I5
I5
I3
I3
I8
I7
I0
I0
I0
I0
I0
I7
I4
I4
tp6
a(I0
I0
I0
I6
I6
I9
I0
I0
I0
I0
I0
I9
I2
I0
I0
I1
I1
I9
I2
I0
I8
I7
I5
I5
I3
I3
I8
I7
I0
I0
I0
I0
I8
I7
I4
I4
tp7
a(I0
I0
I0
I6
I6
I9
I0
I0
I0
I0
I0
I9
I2
I0
I1
I1
I0
I9
I2
I0
I8
I7
I5
I5
I3
I3
I8
I7
I0
I0
I0
I0
I8
I7
I4
I4
tp8
a(I0
I0
I0
I6
I6
I9
I0
I0
I0
I0
I0
I9
I2
I1
I1
I0
I0
I9
I2
I0
I8
I7
I5
I5
I3
I3
I8
I7
I0
I0
I0
I0
I8
I7
I4
I4
tp9
a(I0
I0
I0
I6
I6
I9
I0
I0
I0
I0
I0
I9
I2
I1
I1
I7
I0
I9
I2
I0
I8
I7
I5
I5
I3
I3
I8
I7
I0
I0
I0
I0
I8
I0
I4
I4
tp10
a(I0
I0
I0
I6
I6
I9
I0
I0
I0
I7
I0
I9
I2
I1
I1
I7
I0
I9
I2
I0
I8
I7
I5
I5
I3
I3
I8
I0
I0
I0
I0
I0
I8
I0
I4
I4
tp11
a(I0
I0
I0
I6
I6
I9
I2
I0
I0
I7
I0
I9
I2
I1
I1
I7
I0
I9
I0
I0
I8
I7
I5
I5
I3
I3
I8
I0
I0
I0
I0
I0
I8
I0
I4
I4
tp12
a(I2
I0
I0
I6
I6
I9
I2
I0
I0
I7
I0
I9
I0
I1
I1
I7
I0
I9
I0
I0
I8
I7
I5
I5
I3
I3
I8
I0
I0
I0
I0
I0
I8
I0
I4
I4
tp13
a(I2
I0
I0
I6
I6
I9
I2
I0
I0
I7
I0
I9
I1
I1
I0
I7
I0
I9
I0
I0
I8
I7
I5
I5
I3
I3
I8
I0
I0
I0
I0
I0
I8
I0
I4
I4
tp14
a(I2
I0
I0
I6
I6
I9
I2
I0
I0
I7
I0
I9
I1
I1
I8
I7
I0
I9
I0
I0
I8
I7
I5
I5
I3
I3
I8
I0
I0
I0
I0
I0
I0
I0
I4
I4
tp15
a(I2
I0
I0
I6
I6
I9
I2
I0
I8
I7
I0
I9
I1
I1
I8
I7
I0
I9
I0
I0
I8
I7
I5
I5
I3
I3
I0
I0
I0
I0
I0
I0
I0
I0
I4
I4
tp16
a(I2
I0
I0
I6
I6
I9
I2
I0
I8
I7
I0
I9
I1
I1
I8
I7
I0
I9
I0
I0
I8
I7
I5
I5
I0
I3
I3
I0
I0
I0
I0
I0
I0
I0
I4
I4
tp17
a(I2
I0
I0
I6
I6
I9
I2
I0
I8
I7
I0
I9
I1
I1
I8
I7
I0
I9
I0
I0
I8
I7
I5
I5
I0
I0
I3
I3
I0
I0
I0
I0
I0
I0
I4
I4
tp18
a(I2
I0
I0
I6
I6
I9
I2
I0
I8
I7
I0
I9
I1
I1
I8
I7
I0
I9
I0
I0
I8
I7
I5
I5
I0
I0
I0
I3
I3
I0
I0
I0
I0
I0
I4
I4
tp19
a(I2
I0
I0
I6
I6
I9
I2
I0
I0
I7
I0
I9
I1
I1
I8
I7
I0
I9
I0
I0
I8
I7
I5
I5
I0
I0
I8
I3
I3
I0
I0
I0
I0
I0
I4
I4
tp20
a(I2
I0
I0
I6
I6
I9
I2
I0
I0
I7
I0
I9
I1
I1
I0
I7
I0
I9
I0
I0
I8
I7
I5
I5
I0
I0
I8
I3
I3
I0
I0
I0
I8
I0
I4
I4
tp21
a(I2
I0
I6
I6
I0
I9
I2
I0
I0
I7
I0
I9
I1
I1
I0
I7
I0
I9
I0
I0
I8
I7
I5
I5
I0
I0
I8
I3
I3
I0
I0
I0
I8
I0
I4
I4
tp22
a(I2
I6
I6
I0
I0
I9
I2
I0
I0
I7
I0
I9
I1
I1
I0
I7
I0
I9
I0
I0
I8
I7
I5
I5
I0
I0
I8
I3
I3
I0
I0
I0
I8
I0
I4
I4
tp23
a(I2
I6
I6
I7
I0
I9
I2
I0
I0
I7
I0
I9
I1
I1
I0
I7
I0
I9
I0
I0
I8
I0
I5
I5
I0
I0
I8
I3
I3
I0
I0
I0
I8
I0
I4
I4
tp24
a(I2
I6
I6
I7
I0
I9
I2
I0
I0
I7
I0
I9
I1
I1
I0
I7
I0
I9
I0
I0
I8
I5
I5
I0
I0
I0
I8
I3
I3
I0
I0
I0
I8
I0
I4
I4
tp25
a(I2
I6
I6
I7
I0
I0
I2
I0
I0
I7
I0
I9
I1
I1
I0
I7
I0
I9
I0
I0
I8
I5
I5
I9
I0
I0
I8
I3
I3
I0
I0
I0
I8
I0
I4
I4
tp26
a(I2
I6
I6
I7
I0
I0
I2
I0
I0
I7
I0
I0
I1
I1
I0
I7
I0
I9
I0
I0
I8
I5
I5
I9
I0
I0
I8
I3
I3
I9
I0
I0
I8
I0
I4
I4
tp27
a(I2
I6
I6
I7
I0
I0
I2
I0
I0
I7
I0
I0
I1
I1
I0
I7
I0
I9
I0
I0
I8
I5
I5
I9
I0
I0
I8
I3
I3
I9
I0
I0
I8
I4
I4
I0
tp28
a(I2
I6
I6
I7
I0
I0
I2
I0
I0
I7
I0
I0
I1
I1
I0
I7
I0
I0
I0
I0
I8
I5
I5
I9
I0
I0
I8
I3
I3
I9
I0
I0
I8
I4
I4
I9
tp29
a(I2
I6
I6
I7
I0
I0
I2
I0
I0
I7
I0
I0
I0
I1
I1
I7
I0
I0
I0
I0
I8
I5
I5
I9
I0
I0
I8
I3
I3
I9
I0
I0
I8
I4
I4
I9
tp30
a(I0
I6
I6
I7
I0
I0
I2
I0
I0
I7
I0
I0
I2
I1
I1
I7
I0
I0
I0
I0
I8
I5
I5
I9
I0
I0
I8
I3
I3
I9
I0
I0
I8
I4
I4
I9
tp31
a(I0
I6
I6
I7
I0
I0
I0
I0
I0
I7
I0
I0
I2
I1
I1
I7
I0
I0
I2
I0
I8
I5
I5
I9
I0
I0
I8
I3
I3
I9
I0
I0
I8
I4
I4
I9
tp32
a(I0
I6
I6
I7
I0
I0
I0
I0
I0
I7
I0
I0
I0
I1
I1
I7
I0
I0
I2
I0
I8
I5
I5
I9
I2
I0
I8
I3
I3
I9
I0
I0
I8
I4
I4
I9
tp33
a(I0
I6
I6
I7
I0
I0
I0
I0
I0
I7
I0
I0
I1
I1
I0
I7
I0
I0
I2
I0
I8
I5
I5
I9
I2
I0
I8
I3
I3
I9
I0
I0
I8
I4
I4
I9
tp34
a(I0
I6
I6
I7
I0
I0
I0
I0
I0
I7
I0
I0
I1
I1
I8
I7
I0
I0
I2
I0
I8
I5
I5
I9
I2
I0
I8
I3
I3
I9
I0
I0
I0
I4
I4
I9
tp35
a(I0
I6
I6
I7
I0
I0
I0
I0
I8
I7
I0
I0
I1
I1
I8
I7
I0
I0
I2
I0
I8
I5
I5
I9
I2
I0
I0
I3
I3
I9
I0
I0
I0
I4
I4
I9
tp36
a(I0
I6
I6
I7
I0
I0
I0
I0
I8
I7
I0
I0
I1
I1
I8
I7
I0
I0
I0
I0
I8
I5
I5
I9
I2
I0
I0
I3
I3
I9
I2
I0
I0
I4
I4
I9
tp37
a(I6
I6
I0
I7
I0
I0
I0
I0
I8
I7
I0
I0
I1
I1
I8
I7
I0
I0
I0
I0
I8
I5
I5
I9
I2
I0
I0
I3
I3
I9
I2
I0
I0
I4
I4
I9
tp38
a(I6
I6
I8
I7
I0
I0
I0
I0
I8
I7
I0
I0
I1
I1
I8
I7
I0
I0
I0
I0
I0
I5
I5
I9
I2
I0
I0
I3
I3
I9
I2
I0
I0
I4
I4
I9
tp39
a(I6
I6
I8
I7
I0
I0
I0
I0
I8
I7
I0
I0
I1
I1
I8
I7
I0
I0
I0
I0
I5
I5
I0
I9
I2
I0
I0
I3
I3
I9
I2
I0
I0
I4
I4
I9
tp40
a(I6
I6
I8
I7
I0
I0
I0
I0
I8
I7
I0
I0
I1
I1
I8
I7
I0
I0
I0
I5
I5
I0
I0
I9
I2
I0
I0
I3
I3
I9
I2
I0
I0
I4
I4
I9
tp41
a(I6
I6
I8
I7
I0
I0
I0
I0
I8
I7
I0
I0
I1
I1
I8
I7
I0
I0
I5
I5
I0
I0
I0
I9
I2
I0
I0
I3
I3
I9
I2
I0
I0
I4
I4
I9
tp42
a(I6
I6
I0
I7
I0
I0
I0
I0
I8
I7
I0
I0
I1
I1
I8
I7
I0
I0
I5
I5
I8
I0
I0
I9
I2
I0
I0
I3
I3
I9
I2
I0
I0
I4
I4
I9
tp43
a(I0
I6
I6
I7
I0
I0
I0
I0
I8
I7
I0
I0
I1
I1
I8
I7
I0
I0
I5
I5
I8
I0
I0
I9
I2
I0
I0
I3
I3
I9
I2
I0
I0
I4
I4
I9
tp44
a(I0
I6
I6
I0
I0
I0
I0
I0
I8
I7
I0
I0
I1
I1
I8
I7
I0
I0
I5
I5
I8
I7
I0
I9
I2
I0
I0
I3
I3
I9
I2
I0
I0
I4
I4
I9
tp45
a(I0
I0
I6
I6
I0
I0
I0
I0
I8
I7
I0
I0
I1
I1
I8
I7
I0
I0
I5
I5
I8
I7
I0
I9
I2
I0
I0
I3
I3
I9
I2
I0
I0
I4
I4
I9
tp46
a(I0
I0
I0
I6
I6
I0
I0
I0
I8
I7
I0
I0
I1
I1
I8
I7
I0
I0
I5
I5
I8
I7
I0
I9
I2
I0
I0
I3
I3
I9
I2
I0
I0
I4
I4
I9
tp47
a(I0
I0
I0
I0
I6
I6
I0
I0
I8
I7
I0
I0
I1
I1
I8
I7
I0
I0
I5
I5
I8
I7
I0
I9
I2
I0
I0
I3
I3
I9
I2
I0
I0
I4
I4
I9
tp48
a(I0
I0
I8
I0
I6
I6
I0
I0
I8
I7
I0
I0
I1
I1
I8
I7
I0
I0
I5
I5
I0
I7
I0
I9
I2
I0
I0
I3
I3
I9
I2
I0
I0
I4
I4
I9
tp49
a(I0
I0
I8
I0
I6
I6
I0
I0
I8
I7
I0
I0
I1
I1
I8
I7
I0
I0
I0
I5
I5
I7
I0
I9
I2
I0
I0
I3
I3
I9
I2
I0
I0
I4
I4
I9
tp50
a(I0
I0
I8
I7
I6
I6
I0
I0
I8
I7
I0
I0
I1
I1
I8
I7
I0
I0
I0
I5
I5
I0
I0
I9
I2
I0
I0
I3
I3
I9
I2
I0
I0
I4
I4
I9
tp51
a(I0
I0
I8
I7
I6
I6
I0
I0
I8
I7
I0
I0
I1
I1
I8
I7
I0
I0
I0
I0
I5
I5
I0
I9
I2
I0
I0
I3
I3
I9
I2
I0
I0
I4
I4
I9
tp52
a(I0
I0
I8
I7
I6
I6
I0
I0
I8
I7
I0
I0
I1
I1
I8
I7
I0
I0
I0
I0
I0
I5
I5
I9
I2
I0
I0
I3
I3
I9
I2
I0
I0
I4
I4
I9
tp53
a(I0
I0
I0
I7
I6
I6
I0
I0
I8
I7
I0
I0
I1
I1
I8
I7
I0
I0
I0
I0
I8
I5
I5
I9
I2
I0
I0
I3
I3
I9
I2
I0
I0
I4
I4
I9
tp54
a(I0
I0
I0
I7
I6
I6
I0
I0
I0
I7
I0
I0
I1
I1
I8
I7
I0
I0
I0
I0
I8
I5
I5
I9
I2
I0
I8
I3
I3
I9
I2
I0
I0
I4
I4
I9
tp55
a(I0
I0
I0
I7
I6
I6
I0
I0
I0
I7
I0
I0
I1
I1
I0
I7
I0
I0
I0
I0
I8
I5
I5
I9
I2
I0
I8
I3
I3
I9
I2
I0
I8
I4
I4
I9
tp56
a(I0
I0
I0
I7
I6
I6
I0
I0
I0
I7
I0
I0
I0
I1
I1
I7
I0
I0
I0
I0
I8
I5
I5
I9
I2
I0
I8
I3
I3
I9
I2
I0
I8
I4
I4
I9
tp57
a(I0
I0
I0
I7
I6
I6
I0
I0
I0
I7
I0
I0
I0
I1
I1
I7
I0
I0
I2
I0
I8
I5
I5
I9
I2
I0
I8
I3
I3
I9
I0
I0
I8
I4
I4
I9
tp58
a(I0
I0
I0
I7
I6
I6
I0
I0
I0
I7
I0
I0
I2
I1
I1
I7
I0
I0
I2
I0
I8
I5
I5
I9
I0
I0
I8
I3
I3
I9
I0
I0
I8
I4
I4
I9
tp59
a(I0
I0
I0
I7
I6
I6
I2
I0
I0
I7
I0
I0
I2
I1
I1
I7
I0
I0
I0
I0
I8
I5
I5
I9
I0
I0
I8
I3
I3
I9
I0
I0
I8
I4
I4
I9
tp60
a(I2
I0
I0
I7
I6
I6
I2
I0
I0
I7
I0
I0
I0
I1
I1
I7
I0
I0
I0
I0
I8
I5
I5
I9
I0
I0
I8
I3
I3
I9
I0
I0
I8
I4
I4
I9
tp61
a(I2
I0
I0
I7
I6
I6
I2
I0
I0
I7
I0
I0
I1
I1
I0
I7
I0
I0
I0
I0
I8
I5
I5
I9
I0
I0
I8
I3
I3
I9
I0
I0
I8
I4
I4
I9
tp62
a(I2
I0
I0
I7
I6
I6
I2
I0
I0
I7
I0
I0
I1
I1
I8
I7
I0
I0
I0
I0
I8
I5
I5
I9
I0
I0
I8
I3
I3
I9
I0
I0
I0
I4
I4
I9
tp63
a(I2
I0
I0
I7
I6
I6
I2
I0
I8
I7
I0
I0
I1
I1
I8
I7
I0
I0
I0
I0
I8
I5
I5
I9
I0
I0
I0
I3
I3
I9
I0
I0
I0
I4
I4
I9
tp64
a(I2
I0
I8
I7
I6
I6
I2
I0
I8
I7
I0
I0
I1
I1
I8
I7
I0
I0
I0
I0
I0
I5
I5
I9
I0
I0
I0
I3
I3
I9
I0
I0
I0
I4
I4
I9
tp65
a(I2
I0
I8
I7
I6
I6
I2
I0
I8
I7
I0
I0
I1
I1
I8
I7
I0
I0
I0
I0
I5
I5
I0
I9
I0
I0
I0
I3
I3
I9
I0
I0
I0
I4
I4
I9
tp66
a(I2
I0
I8
I7
I6
I6
I2
I0
I8
I7
I0
I0
I1
I1
I8
I7
I0
I0
I0
I5
I5
I0
I0
I9
I0
I0
I0
I3
I3
I9
I0
I0
I0
I4
I4
I9
tp67
a(I2
I0
I8
I7
I6
I6
I2
I0
I8
I7
I0
I0
I1
I1
I8
I7
I0
I0
I5
I5
I0
I0
I0
I9
I0
I0
I0
I3
I3
I9
I0
I0
I0
I4
I4
I9
tp68
a(I2
I0
I0
I7
I6
I6
I2
I0
I8
I7
I0
I0
I1
I1
I8
I7
I0
I0
I5
I5
I8
I0
I0
I9
I0
I0
I0
I3
I3
I9
I0
I0
I0
I4
I4
I9
tp69
a(I2
I0
I0
I7
I6
I6
I2
I0
I8
I7
I0
I0
I1
I1
I8
I7
I0
I0
I5
I5
I8
I0
I0
I9
I0
I0
I3
I3
I0
I9
I0
I0
I0
I4
I4
I9
tp70
a(I2
I0
I0
I7
I6
I6
I2
I0
I8
I7
I0
I0
I1
I1
I8
I7
I0
I0
I5
I5
I8
I0
I0
I9
I0
I3
I3
I0
I0
I9
I0
I0
I0
I4
I4
I9
tp71
a(I2
I0
I0
I7
I6
I6
I2
I0
I8
I7
I0
I0
I1
I1
I8
I7
I0
I0
I5
I5
I8
I0
I0
I9
I3
I3
I0
I0
I0
I9
I0
I0
I0
I4
I4
I9
tp72
a(I2
I0
I0
I7
I6
I6
I2
I0
I0
I7
I0
I0
I1
I1
I8
I7
I0
I0
I5
I5
I8
I0
I0
I9
I3
I3
I8
I0
I0
I9
I0
I0
I0
I4
I4
I9
tp73
a(I2
I0
I0
I7
I6
I6
I2
I0
I0
I7
I0
I0
I1
I1
I8
I7
I0
I0
I5
I5
I8
I0
I0
I9
I3
I3
I8
I0
I0
I9
I0
I0
I4
I4
I0
I9
tp74
a(I2
I0
I0
I7
I6
I6
I2
I0
I0
I7
I0
I0
I1
I1
I8
I7
I0
I0
I5
I5
I8
I0
I0
I9
I3
I3
I8
I0
I0
I9
I0
I4
I4
I0
I0
I9
tp75
a(I2
I0
I0
I7
I6
I6
I2
I0
I0
I7
I0
I0
I1
I1
I8
I7
I0
I0
I5
I5
I8
I0
I0
I9
I3
I3
I8
I0
I0
I9
I4
I4
I0
I0
I0
I9
tp76
a(I2
I0
I0
I7
I6
I6
I2
I0
I0
I7
I0
I0
I1
I1
I0
I7
I0
I0
I5
I5
I8
I0
I0
I9
I3
I3
I8
I0
I0
I9
I4
I4
I8
I0
I0
I9
tp77
a(I2
I0
I0
I0
I6
I6
I2
I0
I0
I7
I0
I0
I1
I1
I0
I7
I0
I0
I5
I5
I8
I7
I0
I9
I3
I3
I8
I0
I0
I9
I4
I4
I8
I0
I0
I9
tp78
a(I2
I0
I0
I0
I6
I6
I2
I0
I0
I0
I0
I0
I1
I1
I0
I7
I0
I0
I5
I5
I8
I7
I0
I9
I3
I3
I8
I7
I0
I9
I4
I4
I8
I0
I0
I9
tp79
a(I2
I0
I0
I0
I6
I6
I2
I0
I0
I0
I0
I0
I1
I1
I0
I0
I0
I0
I5
I5
I8
I7
I0
I9
I3
I3
I8
I7
I0
I9
I4
I4
I8
I7
I0
I9
tp80
a.