(lp0
(lp1
(lp2
I24
aI24
aI25
aI25
aI21
aI0
aI0
aI23
aI0
aa(lp3
I17
aI20
aI20
aI20
aI21
aI22
aI22
aI23
aI0
aa(lp4
I17
aI0
aI18
aI18
aI14
aI15
aI0
aI19
aI19
aa(lp5
I0
aI0
aI13
aI10
aI14
aI15
aI16
aI16
aI16
aa(lp6
I1
aI1
aI13
aI10
aI0
aI0
aI0
aI0
aI0
aa(lp7
I0
aI7
aI0
aI10
aI11
aI11
aI12
aI12
aI26
aa(lp8
I2
aI7
aI8
aI8
aI4
aI9
aI9
aI9
aI26
aa(lp9
I2
aI0
aI5
aI5
aI4
aI6
aI6
aI0
aI26
aa(lp10
I2
aI3
aI3
aI3
aI4
aI0
aI0
aI0
aI0
aaa(lp11
g2
ag3
a(lp12
I17
aI0
aI18
aI18
aI0
aI15
aI0
aI19
aI19
aa(lp13
I0
aI0
aI13
aI10
aI14
aI15
aI16
aI16
aI16
aa(lp14
I1
aI1
aI13
aI10
aI14
aI0
aI0
aI0
aI0
aag7
ag8
ag9
ag10
aa(lp15
g2
ag3
a(lp16
I17
aI0
aI0
aI18
aI18
aI15
aI0
aI19
aI19
aag13
ag14
ag7
ag8
ag9
ag10
aa(lp17
g2
ag3
a(lp18
I17
aI0
aI0
aI18
aI18
aI0
aI0
aI19
aI19
aa(lp19
I0
aI0
aI13
aI10
aI14
aI15
aI16
aI16
aI16
aa(lp20
I1
aI1
aI13
aI10
aI14
aI15
aI0
aI0
aI0
aag7
ag8
ag9
ag10
aa(lp21
g2
ag3
a(lp22
I17
aI0
aI0
aI0
aI18
aI18
aI0
aI19
aI19
aag19
ag20
ag7
ag8
ag9
ag10
aa(lp23
g2
ag3
a(lp24
I17
aI0
aI0
aI0
aI0
aI18
aI18
aI19
aI19
aag19
ag20
ag7
ag8
ag9
ag10
aa(lp25
g2
ag3
a(lp26
I17
aI0
aI0
aI0
aI14
aI18
aI18
aI19
aI19
aa(lp27
I0
aI0
aI13
aI10
aI14
aI15
aI16
aI16
aI16
aa(lp28
I1
aI1
aI13
aI10
aI0
aI15
aI0
aI0
aI0
aag7
ag8
ag9
ag10
aa(lp29
g2
ag3
a(lp30
I17
aI0
aI0
aI10
aI14
aI18
aI18
aI19
aI19
aa(lp31
I0
aI0
aI13
aI10
aI14
aI15
aI16
aI16
aI16
aa(lp32
I1
aI1
aI13
aI10
aI0
aI15
aI0
aI0
aI0
aa(lp33
I0
aI7
aI0
aI0
aI11
aI11
aI12
aI12
aI26
aag8
ag9
ag10
aa(lp34
g2
ag3
ag30
ag31
ag32
a(lp35
I0
aI7
aI0
aI11
aI11
aI0
aI12
aI12
aI26
aag8
ag9
ag10
aa(lp36
g2
ag3
ag30
a(lp37
I0
aI0
aI13
aI10
aI14
aI0
aI16
aI16
aI16
aa(lp38
I1
aI1
aI13
aI10
aI0
aI15
aI0
aI0
aI0
aa(lp39
I0
aI7
aI0
aI11
aI11
aI15
aI12
aI12
aI26
aag8
ag9
ag10
aa(lp40
g2
ag3
ag30
a(lp41
I0
aI0
aI13
aI10
aI14
aI16
aI16
aI16
aI0
aag38
ag39
ag8
ag9
ag10
aa(lp42
g2
ag3
ag30
ag41
a(lp43
I1
aI1
aI13
aI10
aI0
aI15
aI0
aI0
aI26
aa(lp44
I0
aI7
aI0
aI11
aI11
aI15
aI12
aI12
aI26
aa(lp45
I2
aI7
aI8
aI8
aI4
aI9
aI9
aI9
aI26
aa(lp46
I2
aI0
aI5
aI5
aI4
aI6
aI6
aI0
aI0
aag10
aa(lp47
g2
ag3
ag30
a(lp48
I0
aI0
aI13
aI10
aI14
aI16
aI16
aI16
aI26
aa(lp49
I1
aI1
aI13
aI10
aI0
aI15
aI0
aI0
aI26
aa(lp50
I0
aI7
aI0
aI11
aI11
aI15
aI12
aI12
aI26
aa(lp51
I2
aI7
aI8
aI8
aI4
aI9
aI9
aI9
aI0
aag46
ag10
aa(lp52
g2
ag3
ag30
ag48
ag49
ag50
a(lp53
I2
aI7
aI8
aI8
aI4
aI0
aI9
aI9
aI9
aag46
ag10
aa(lp54
g2
ag3
ag30
ag48
a(lp55
I1
aI1
aI13
aI10
aI0
aI0
aI0
aI0
aI26
aa(lp56
I0
aI7
aI0
aI11
aI11
aI15
aI12
aI12
aI26
aa(lp57
I2
aI7
aI8
aI8
aI4
aI15
aI9
aI9
aI9
aag46
ag10
aa(lp58
g2
a(lp59
I0
aI20
aI20
aI20
aI21
aI22
aI22
aI23
aI0
aa(lp60
I17
aI0
aI0
aI10
aI14
aI18
aI18
aI19
aI19
aa(lp61
I17
aI0
aI13
aI10
aI14
aI16
aI16
aI16
aI26
aag55
ag56
ag57
ag46
ag10
aa(lp62
g2
a(lp63
I20
aI20
aI20
aI0
aI21
aI22
aI22
aI23
aI0
aag60
ag61
ag55
ag56
ag57
ag46
ag10
aa(lp64
g2
a(lp65
I20
aI20
aI20
aI10
aI21
aI22
aI22
aI23
aI0
aa(lp66
I17
aI0
aI0
aI10
aI14
aI18
aI18
aI19
aI19
aa(lp67
I17
aI0
aI13
aI10
aI14
aI16
aI16
aI16
aI26
aa(lp68
I1
aI1
aI13
aI0
aI0
aI0
aI0
aI0
aI26
aag56
ag57
ag46
ag10
aa(lp69
g2
ag65
ag66
ag67
ag68
ag56
ag57
a(lp70
I2
aI0
aI5
aI5
aI4
aI0
aI6
aI6
aI0
aag10
aa(lp71
g2
ag65
ag66
ag67
ag68
a(lp72
I0
aI7
aI0
aI11
aI11
aI0
aI12
aI12
aI26
aa(lp73
I2
aI7
aI8
aI8
aI4
aI15
aI9
aI9
aI9
aa(lp74
I2
aI0
aI5
aI5
aI4
aI15
aI6
aI6
aI0
aag10
aa(lp75
g2
ag65
ag66
ag67
ag68
ag72
a(lp76
I2
aI7
aI8
aI8
aI4
aI0
aI9
aI9
aI9
aa(lp77
I2
aI0
aI5
aI5
aI4
aI15
aI6
aI6
aI0
aa(lp78
I2
aI3
aI3
aI3
aI4
aI15
aI0
aI0
aI0
aaa(lp79
g2
ag65
ag66
ag67
ag68
ag72
a(lp80
I2
aI7
aI8
aI8
aI4
aI9
aI9
aI9
aI0
aag77
ag78
aa(lp81
g2
ag65
ag66
a(lp82
I17
aI0
aI13
aI10
aI14
aI16
aI16
aI16
aI0
aa(lp83
I1
aI1
aI13
aI0
aI0
aI0
aI0
aI0
aI26
aa(lp84
I0
aI7
aI0
aI11
aI11
aI0
aI12
aI12
aI26
aa(lp85
I2
aI7
aI8
aI8
aI4
aI9
aI9
aI9
aI26
aag77
ag78
aa(lp86
g2
ag65
ag66
ag82
a(lp87
I1
aI1
aI13
aI0
aI0
aI0
aI0
aI0
aI0
aa(lp88
I0
aI7
aI0
aI11
aI11
aI0
aI12
aI12
aI26
aa(lp89
I2
aI7
aI8
aI8
aI4
aI9
aI9
aI9
aI26
aa(lp90
I2
aI0
aI5
aI5
aI4
aI15
aI6
aI6
aI26
aag78
aa(lp91
g2
ag65
a(lp92
I17
aI0
aI13
aI10
aI14
aI18
aI18
aI19
aI19
aa(lp93
I17
aI0
aI13
aI10
aI14
aI16
aI16
aI16
aI0
aa(lp94
I1
aI1
aI0
aI0
aI0
aI0
aI0
aI0
aI0
aag88
ag89
ag90
ag78
aa.