(lp0
(lp1
(lp2
I5
aI5
aI5
aI20
aI0
aI22
aI23
aI0
aI0
aa(lp3
I0
aI0
aI0
aI20
aI0
aI22
aI23
aI24
aI24
aa(lp4
I0
aI0
aI0
aI20
aI21
aI21
aI18
aI0
aI0
aa(lp5
I0
aI0
aI0
aI0
aI17
aI17
aI18
aI19
aI19
aa(lp6
I0
aI0
aI16
aI16
aI16
aI13
aI1
aI1
aI15
aa(lp7
I3
aI0
aI11
aI0
aI0
aI13
aI0
aI0
aI15
aa(lp8
I3
aI0
aI11
aI12
aI12
aI13
aI14
aI14
aI15
aa(lp9
I2
aI4
aI7
aI7
aI8
aI9
aI9
aI9
aI10
aa(lp10
I2
aI4
aI6
aI6
aI8
aI0
aI0
aI0
aI10
aaa(lp11
g2
ag3
ag4
ag5
ag6
ag7
a(lp12
I3
aI4
aI11
aI12
aI12
aI13
aI14
aI14
aI15
aa(lp13
I2
aI4
aI7
aI7
aI8
aI9
aI9
aI9
aI10
aa(lp14
I2
aI0
aI6
aI6
aI8
aI0
aI0
aI0
aI10
aaa(lp15
g2
ag3
ag4
ag5
ag6
a(lp16
I3
aI4
aI11
aI0
aI0
aI13
aI0
aI0
aI15
aa(lp17
I3
aI4
aI11
aI12
aI12
aI13
aI14
aI14
aI15
aa(lp18
I2
aI0
aI7
aI7
aI8
aI9
aI9
aI9
aI10
aag14
aa(lp19
g2
ag3
ag4
ag5
ag6
ag16
ag17
a(lp20
I2
aI7
aI7
aI0
aI8
aI9
aI9
aI9
aI10
aag14
aa(lp21
g2
ag3
ag4
ag5
a(lp22
I3
aI0
aI16
aI16
aI16
aI13
aI1
aI1
aI15
aa(lp23
I3
aI4
aI11
aI0
aI0
aI13
aI0
aI0
aI15
aa(lp24
I0
aI4
aI11
aI12
aI12
aI13
aI14
aI14
aI15
aag20
ag14
aa(lp25
g2
ag3
ag4
ag5
ag22
ag23
a(lp26
I2
aI4
aI11
aI12
aI12
aI13
aI14
aI14
aI15
aa(lp27
I2
aI7
aI7
aI0
aI8
aI9
aI9
aI9
aI10
aa(lp28
I0
aI0
aI6
aI6
aI8
aI0
aI0
aI0
aI10
aaa(lp29
g2
ag3
ag4
a(lp30
I3
aI0
aI0
aI0
aI17
aI17
aI18
aI19
aI19
aa(lp31
I3
aI0
aI16
aI16
aI16
aI13
aI1
aI1
aI15
aa(lp32
I0
aI4
aI11
aI0
aI0
aI13
aI0
aI0
aI15
aag26
ag27
ag28
aa(lp33
g2
ag3
ag4
ag30
ag31
a(lp34
I2
aI4
aI11
aI0
aI0
aI13
aI0
aI0
aI15
aa(lp35
I2
aI4
aI11
aI12
aI12
aI13
aI14
aI14
aI15
aa(lp36
I0
aI7
aI7
aI0
aI8
aI9
aI9
aI9
aI10
aag28
aa(lp37
g2
ag3
ag4
ag30
ag31
ag34
ag35
a(lp38
I7
aI7
aI0
aI0
aI8
aI9
aI9
aI9
aI10
aag28
aa(lp39
g2
ag3
ag4
ag30
ag31
a(lp40
I2
aI4
aI0
aI0
aI0
aI13
aI0
aI0
aI15
aa(lp41
I2
aI4
aI11
aI12
aI12
aI13
aI14
aI14
aI15
aa(lp42
I7
aI7
aI11
aI0
aI8
aI9
aI9
aI9
aI10
aag28
aa(lp43
g2
ag3
ag4
ag30
ag31
ag40
ag41
ag42
a(lp44
I0
aI6
aI6
aI0
aI8
aI0
aI0
aI0
aI10
aaa(lp45
g2
ag3
ag4
ag30
ag31
ag40
ag41
ag42
a(lp46
I6
aI6
aI0
aI0
aI8
aI0
aI0
aI0
aI10
aaa(lp47
g2
ag3
ag4
ag30
ag31
ag40
a(lp48
I2
aI4
aI0
aI12
aI12
aI13
aI14
aI14
aI15
aa(lp49
I7
aI7
aI11
aI0
aI8
aI9
aI9
aI9
aI10
aa(lp50
I6
aI6
aI11
aI0
aI8
aI0
aI0
aI0
aI10
aaa(lp51
g2
ag3
ag4
ag30
ag31
ag40
a(lp52
I2
aI4
aI12
aI12
aI0
aI13
aI14
aI14
aI15
aag49
ag50
aa(lp53
g2
ag3
ag4
ag30
ag31
ag40
a(lp54
I2
aI4
aI12
aI12
aI8
aI13
aI14
aI14
aI15
aa(lp55
I7
aI7
aI11
aI0
aI8
aI9
aI9
aI9
aI10
aa(lp56
I6
aI6
aI11
aI0
aI0
aI0
aI0
aI0
aI10
aaa(lp57
g2
ag3
ag4
ag30
ag31
a(lp58
I2
aI4
aI0
aI0
aI8
aI13
aI0
aI0
aI15
aa(lp59
I2
aI4
aI12
aI12
aI8
aI13
aI14
aI14
aI15
aa(lp60
I7
aI7
aI11
aI0
aI0
aI9
aI9
aI9
aI10
aag56
aa(lp61
g2
ag3
ag4
ag30
ag31
ag58
ag59
a(lp62
I7
aI7
aI11
aI0
aI9
aI9
aI9
aI0
aI10
aag56
aa(lp63
g2
ag3
ag4
ag30
ag31
ag58
ag59
a(lp64
I7
aI7
aI11
aI9
aI9
aI9
aI0
aI0
aI10
aag56
aa(lp65
g2
ag3
ag4
ag30
a(lp66
I3
aI4
aI16
aI16
aI16
aI13
aI1
aI1
aI15
aa(lp67
I2
aI4
aI0
aI0
aI8
aI13
aI0
aI0
aI15
aa(lp68
I2
aI0
aI12
aI12
aI8
aI13
aI14
aI14
aI15
aag64
ag56
aa(lp69
g2
ag3
ag4
ag30
ag66
ag67
a(lp70
I2
aI12
aI12
aI0
aI8
aI13
aI14
aI14
aI15
aag64
ag56
aa(lp71
g2
ag3
a(lp72
I3
aI0
aI0
aI20
aI21
aI21
aI18
aI0
aI0
aa(lp73
I3
aI0
aI0
aI0
aI17
aI17
aI18
aI19
aI19
aa(lp74
I0
aI4
aI16
aI16
aI16
aI13
aI1
aI1
aI15
aag67
ag70
ag64
ag56
aa(lp75
g2
ag3
ag72
ag73
a(lp76
I2
aI4
aI16
aI16
aI16
aI13
aI1
aI1
aI15
aa(lp77
I2
aI4
aI0
aI0
aI8
aI13
aI0
aI0
aI15
aa(lp78
I0
aI12
aI12
aI0
aI8
aI13
aI14
aI14
aI15
aag64
ag56
aa(lp79
g2
ag3
ag72
ag73
ag76
ag77
a(lp80
I12
aI12
aI0
aI0
aI8
aI13
aI14
aI14
aI15
aag64
ag56
aa(lp81
g2
ag3
ag72
ag73
ag76
ag77
a(lp82
I12
aI12
aI11
aI0
aI8
aI13
aI14
aI14
aI15
aa(lp83
I7
aI7
aI11
aI9
aI9
aI9
aI0
aI0
aI10
aa(lp84
I6
aI6
aI0
aI0
aI0
aI0
aI0
aI0
aI10
aaa(lp85
g2
ag3
ag72
ag73
ag76
a(lp86
I2
aI4
aI11
aI0
aI8
aI13
aI0
aI0
aI15
aa(lp87
I12
aI12
aI11
aI0
aI8
aI13
aI14
aI14
aI15
aa(lp88
I7
aI7
aI0
aI9
aI9
aI9
aI0
aI0
aI10
aag84
aa(lp89
g2
ag3
ag72
ag73
ag76
ag86
ag87
a(lp90
I7
aI7
aI9
aI9
aI9
aI0
aI0
aI0
aI10
aag84
aa(lp91
g2
ag3
ag72
ag73
a(lp92
I2
aI4
aI16
aI16
aI16
aI0
aI1
aI1
aI15
aa(lp93
I2
aI4
aI11
aI0
aI8
aI13
aI0
aI0
aI15
aa(lp94
I12
aI12
aI11
aI0
aI8
aI13
aI14
aI14
aI15
aa(lp95
I7
aI7
aI9
aI9
aI9
aI13
aI0
aI0
aI10
aag84
aa(lp96
g2
ag3
ag72
ag73
a(lp97
I2
aI4
aI16
aI16
aI16
aI1
aI1
aI0
aI15
aag93
ag94
ag95
ag84
aa(lp98
g2
ag3
ag72
a(lp99
I3
aI4
aI0
aI0
aI17
aI17
aI18
aI19
aI19
aa(lp100
I2
aI4
aI16
aI16
aI16
aI1
aI1
aI0
aI15
aa(lp101
I2
aI0
aI11
aI0
aI8
aI13
aI0
aI0
aI15
aag94
ag95
ag84
aa(lp102
g2
ag3
a(lp103
I3
aI4
aI0
aI20
aI21
aI21
aI18
aI0
aI0
aa(lp104
I3
aI4
aI0
aI0
aI17
aI17
aI18
aI19
aI19
aa(lp105
I2
aI0
aI16
aI16
aI16
aI1
aI1
aI0
aI15
aag101
ag94
ag95
ag84
aa(lp106
g2
ag3
ag103
ag104
a(lp107
I2
aI16
aI16
aI16
aI0
aI1
aI1
aI0
aI15
aag101
ag94
ag95
ag84
aa(lp108
g2
ag3
ag103
ag104
a(lp109
I2
aI16
aI16
aI16
aI1
aI1
aI0
aI0
aI15
aag101
ag94
ag95
ag84
aa(lp110
g2
ag3
a(lp111
I3
aI4
aI0
aI20
aI21
aI21
aI0
aI0
aI0
aa(lp112
I3
aI4
aI0
aI0
aI17
aI17
aI18
aI19
aI19
aa(lp113
I2
aI16
aI16
aI16
aI1
aI1
aI18
aI0
aI15
aag101
ag94
ag95
ag84
aa(lp114
g2
ag3
ag111
a(lp115
I3
aI4
aI0
aI0
aI17
aI17
aI0
aI19
aI19
aa(lp116
I2
aI16
aI16
aI16
aI1
aI1
aI18
aI0
aI15
aa(lp117
I2
aI0
aI11
aI0
aI8
aI13
aI18
aI0
aI15
aag94
ag95
ag84
aa(lp118
g2
ag3
ag111
a(lp119
I3
aI4
aI0
aI0
aI17
aI17
aI19
aI19
aI0
aag116
ag117
ag94
ag95
ag84
aa(lp120
g2
ag3
ag111
a(lp121
I3
aI4
aI0
aI0
aI17
aI17
aI19
aI19
aI15
aa(lp122
I2
aI16
aI16
aI16
aI1
aI1
aI18
aI0
aI15
aa(lp123
I2
aI0
aI11
aI0
aI8
aI13
aI18
aI0
aI15
aa(lp124
I12
aI12
aI11
aI0
aI8
aI13
aI14
aI14
aI0
aag95
ag84
aa(lp125
g2
ag3
ag111
ag121
ag122
ag123
a(lp126
I12
aI12
aI11
aI0
aI8
aI13
aI0
aI14
aI14
aag95
ag84
aa(lp127
g2
ag3
ag111
ag121
a(lp128
I2
aI16
aI16
aI16
aI1
aI1
aI0
aI0
aI15
aa(lp129
I2
aI0
aI11
aI0
aI8
aI13
aI18
aI0
aI15
aa(lp130
I12
aI12
aI11
aI0
aI8
aI13
aI18
aI14
aI14
aag95
ag84
aa(lp131
(lp132
I5
aI5
aI5
aI20
aI0
aI22
aI0
aI0
aI0
aa(lp133
I0
aI0
aI0
aI20
aI0
aI22
aI23
aI24
aI24
aa(lp134
I3
aI4
aI0
aI20
aI21
aI21
aI23
aI0
aI0
aag121
ag128
ag129
ag130
ag95
ag84
aa(lp135
g132
ag133
ag134
a(lp136
I3
aI4
aI0
aI17
aI17
aI0
aI19
aI19
aI15
aag128
ag129
ag130
ag95
ag84
aa(lp137
g132
ag133
ag134
a(lp138
I3
aI4
aI0
aI17
aI17
aI19
aI19
aI0
aI15
aag128
ag129
ag130
ag95
ag84
aa(lp139
g132
ag133
ag134
a(lp140
I3
aI4
aI17
aI17
aI0
aI19
aI19
aI0
aI15
aag128
ag129
ag130
ag95
ag84
aa(lp141
g132
ag133
ag134
a(lp142
I3
aI4
aI17
aI17
aI19
aI19
aI0
aI0
aI15
aag128
ag129
ag130
ag95
ag84
aa(lp143
g132
a(lp144
I0
aI0
aI0
aI20
aI0
aI22
aI0
aI24
aI24
aa(lp145
I3
aI4
aI0
aI20
aI21
aI21
aI23
aI0
aI0
aa(lp146
I3
aI4
aI17
aI17
aI19
aI19
aI23
aI0
aI15
aag128
ag129
ag130
ag95
ag84
aa(lp147
g132
ag144
a(lp148
I3
aI4
aI0
aI20
aI21
aI21
aI23
aI0
aI15
aa(lp149
I3
aI4
aI17
aI17
aI19
aI19
aI23
aI0
aI15
aa(lp150
I2
aI16
aI16
aI16
aI1
aI1
aI0
aI0
aI15
aa(lp151
I2
aI0
aI11
aI0
aI8
aI13
aI18
aI0
aI0
aag130
ag95
ag84
aa(lp152
g132
a(lp153
I0
aI0
aI0
aI20
aI0
aI22
aI24
aI24
aI0
aag148
ag149
ag150
ag151
ag130
ag95
ag84
aa(lp154
g132
a(lp155
I0
aI0
aI0
aI20
aI0
aI22
aI24
aI24
aI15
aa(lp156
I3
aI4
aI0
aI20
aI21
aI21
aI23
aI0
aI15
aa(lp157
I3
aI4
aI17
aI17
aI19
aI19
aI23
aI0
aI15
aa(lp158
I2
aI16
aI16
aI16
aI1
aI1
aI0
aI0
aI0
aag151
ag130
ag95
ag84
aa.