(lp0
(lp1
(lp2
I0
aI7
aI7
aI13
aI13
aI13
aa(lp3
I0
aI6
aI6
aI11
aI12
aI12
aa(lp4
I1
aI1
aI5
aI11
aI0
aI10
aa(lp5
I3
aI3
aI5
aI9
aI9
aI10
aa(lp6
I2
aI0
aI4
aI0
aI8
aI8
aa(lp7
I2
aI0
aI4
aI0
aI0
aI0
aaa(lp8
g2
ag3
ag4
ag5
a(lp9
I2
aI0
aI4
aI8
aI8
aI0
aag7
aa(lp10
g2
ag3
a(lp11
I1
aI1
aI5
aI11
aI0
aI0
aa(lp12
I3
aI3
aI5
aI9
aI9
aI10
aa(lp13
I2
aI0
aI4
aI8
aI8
aI10
aag7
aa(lp14
g2
a(lp15
I6
aI6
aI0
aI11
aI12
aI12
aag11
ag12
ag13
ag7
aa(lp16
g2
a(lp17
I6
aI6
aI5
aI11
aI12
aI12
aa(lp18
I1
aI1
aI5
aI11
aI0
aI0
aa(lp19
I3
aI3
aI0
aI9
aI9
aI10
aag13
ag7
aa(lp20
(lp21
I7
aI7
aI0
aI13
aI13
aI13
aag17
ag18
ag19
ag13
ag7
aa(lp22
(lp23
I7
aI7
aI5
aI13
aI13
aI13
aa(lp24
I6
aI6
aI5
aI11
aI12
aI12
aa(lp25
I1
aI1
aI0
aI11
aI0
aI0
aag19
ag13
ag7
aa(lp26
g23
ag24
ag25
a(lp27
I3
aI3
aI0
aI9
aI9
aI0
aa(lp28
I2
aI0
aI4
aI8
aI8
aI10
aa(lp29
I2
aI0
aI4
aI0
aI0
aI10
aaa(lp30
g23
ag24
ag25
a(lp31
I3
aI3
aI0
aI0
aI9
aI9
aag28
ag29
aa(lp32
g23
ag24
ag25
a(lp33
I3
aI3
aI4
aI0
aI9
aI9
aa(lp34
I2
aI0
aI4
aI8
aI8
aI10
aa(lp35
I2
aI0
aI0
aI0
aI0
aI10
aaa(lp36
g23
ag24
a(lp37
I1
aI1
aI4
aI11
aI0
aI0
aa(lp38
I3
aI3
aI4
aI0
aI9
aI9
aa(lp39
I2
aI0
aI0
aI8
aI8
aI10
aag35
aa(lp40
g23
ag24
ag37
ag38
a(lp41
I2
aI0
aI8
aI8
aI0
aI10
aag35
aa(lp42
g23
ag24
ag37
ag38
a(lp43
I2
aI8
aI8
aI0
aI0
aI10
aag35
aa(lp44
g23
a(lp45
I6
aI6
aI5
aI0
aI12
aI12
aa(lp46
I1
aI1
aI4
aI11
aI0
aI0
aa(lp47
I3
aI3
aI4
aI11
aI9
aI9
aag43
ag35
aa(lp48
g23
ag45
a(lp49
I1
aI1
aI4
aI0
aI0
aI0
aa(lp50
I3
aI3
aI4
aI11
aI9
aI9
aa(lp51
I2
aI8
aI8
aI11
aI0
aI10
aag35
aa(lp52
g23
ag45
ag49
a(lp53
I3
aI3
aI4
aI0
aI9
aI9
aa(lp54
I2
aI8
aI8
aI11
aI0
aI10
aa(lp55
I2
aI0
aI0
aI11
aI0
aI10
aaa(lp56
g23
ag45
ag49
a(lp57
I3
aI3
aI4
aI9
aI9
aI0
aag54
ag55
aa(lp58
g23
ag45
ag49
a(lp59
I3
aI3
aI4
aI9
aI9
aI10
aa(lp60
I2
aI8
aI8
aI11
aI0
aI10
aa(lp61
I2
aI0
aI0
aI11
aI0
aI0
aaa(lp62
g23
a(lp63
I6
aI6
aI5
aI12
aI12
aI0
aag49
ag59
ag60
ag61
aa(lp64
g23
ag63
a(lp65
I1
aI1
aI4
aI0
aI0
aI10
aa(lp66
I3
aI3
aI4
aI9
aI9
aI10
aa(lp67
I2
aI8
aI8
aI11
aI0
aI0
aag61
aa(lp68
g23
a(lp69
I6
aI6
aI5
aI12
aI12
aI10
aa(lp70
I1
aI1
aI4
aI0
aI0
aI10
aa(lp71
I3
aI3
aI4
aI9
aI9
aI0
aag67
ag61
aa(lp72
g23
ag69
ag70
a(lp73
I3
aI3
aI4
aI0
aI9
aI9
aag67
ag61
aa(lp74
g23
ag69
ag70
a(lp75
I3
aI3
aI4
aI11
aI9
aI9
aa(lp76
I2
aI8
aI8
aI11
aI0
aI0
aa(lp77
I2
aI0
aI0
aI0
aI0
aI0
aaa(lp78
g23
ag69
a(lp79
I1
aI1
aI4
aI11
aI0
aI10
aa(lp80
I3
aI3
aI4
aI11
aI9
aI9
aa(lp81
I2
aI8
aI8
aI0
aI0
aI0
aag77
aa(lp82
g23
ag69
ag79
ag80
a(lp83
I2
aI0
aI8
aI8
aI0
aI0
aag77
aa(lp84
g23
ag69
ag79
ag80
a(lp85
I2
aI0
aI0
aI8
aI8
aI0
aag77
aa(lp86
g23
ag69
a(lp87
I1
aI1
aI0
aI11
aI0
aI10
aa(lp88
I3
aI3
aI4
aI11
aI9
aI9
aa(lp89
I2
aI0
aI4
aI8
aI8
aI0
aag77
aa(lp90
g23
ag69
ag87
ag88
a(lp91
I2
aI0
aI4
aI0
aI8
aI8
aag77
aa(lp92
g23
ag69
a(lp93
I1
aI1
aI0
aI0
aI0
aI10
aa(lp94
I3
aI3
aI4
aI11
aI9
aI9
aa(lp95
I2
aI0
aI4
aI11
aI8
aI8
aag77
aa(lp96
g23
ag69
a(lp97
I0
aI1
aI1
aI0
aI0
aI10
aag94
ag95
ag77
aa(lp98
g23
ag69
a(lp99
I0
aI0
aI1
aI1
aI0
aI10
aag94
ag95
ag77
aa(lp100
g23
ag69
a(lp101
I0
aI0
aI0
aI1
aI1
aI10
aag94
ag95
ag77
aa(lp102
(lp103
I7
aI7
aI0
aI13
aI13
aI13
aa(lp104
I6
aI6
aI5
aI12
aI12
aI10
aa(lp105
I0
aI0
aI5
aI1
aI1
aI10
aag94
ag95
ag77
aa(lp106
(lp107
I7
aI7
aI13
aI13
aI13
aI0
aag104
ag105
ag94
ag95
ag77
aa(lp108
(lp109
I7
aI7
aI13
aI13
aI13
aI10
aa(lp110
I6
aI6
aI5
aI12
aI12
aI10
aa(lp111
I0
aI0
aI5
aI1
aI1
aI0
aag94
ag95
ag77
aa.