(lp0
(lp1
(lp2
I0
aI0
aI12
aI12
aI13
aI13
aa(lp3
I0
aI10
aI10
aI11
aI11
aI9
aa(lp4
I0
aI0
aI1
aI1
aI8
aI9
aa(lp5
I3
aI3
aI4
aI4
aI8
aI9
aa(lp6
I2
aI0
aI0
aI5
aI7
aI7
aa(lp7
I2
aI0
aI0
aI5
aI6
aI6
aaa(lp8
g2
a(lp9
I10
aI10
aI0
aI11
aI11
aI9
aag4
ag5
ag6
ag7
aa(lp10
g2
a(lp11
I10
aI10
aI11
aI11
aI0
aI9
aag4
ag5
ag6
ag7
aa(lp12
g2
a(lp13
I10
aI10
aI11
aI11
aI8
aI9
aa(lp14
I0
aI0
aI1
aI1
aI8
aI9
aa(lp15
I3
aI3
aI4
aI4
aI0
aI9
aag6
ag7
aa(lp16
g2
ag13
ag14
a(lp17
I3
aI3
aI0
aI4
aI4
aI9
aag6
ag7
aa(lp18
(lp19
I0
aI12
aI12
aI0
aI13
aI13
aag13
ag14
ag17
ag6
ag7
aa(lp20
(lp21
I0
aI12
aI12
aI13
aI13
aI0
aag13
ag14
ag17
ag6
ag7
aa(lp22
(lp23
I0
aI12
aI12
aI13
aI13
aI9
aa(lp24
I10
aI10
aI11
aI11
aI8
aI9
aa(lp25
I0
aI0
aI1
aI1
aI8
aI9
aa(lp26
I3
aI3
aI0
aI4
aI4
aI0
aag6
ag7
aa(lp27
g23
ag24
ag25
a(lp28
I3
aI3
aI0
aI0
aI4
aI4
aag6
ag7
aa(lp29
g23
ag24
ag25
a(lp30
I3
aI3
aI0
aI5
aI4
aI4
aa(lp31
I2
aI0
aI0
aI5
aI7
aI7
aa(lp32
I2
aI0
aI0
aI0
aI6
aI6
aaa(lp33
g23
ag24
a(lp34
I0
aI1
aI1
aI0
aI8
aI9
aag30
ag31
ag32
aa(lp35
g23
ag24
a(lp36
I0
aI1
aI1
aI5
aI8
aI9
aa(lp37
I3
aI3
aI0
aI5
aI4
aI4
aa(lp38
I2
aI0
aI0
aI0
aI7
aI7
aag32
aa(lp39
g23
ag24
ag36
ag37
a(lp40
I2
aI0
aI0
aI7
aI7
aI0
aag32
aa(lp41
g23
ag24
ag36
ag37
a(lp42
I2
aI0
aI7
aI7
aI0
aI0
aag32
aa(lp43
g23
ag24
ag36
ag37
a(lp44
I2
aI7
aI7
aI0
aI0
aI0
aag32
aa(lp45
g23
ag24
a(lp46
I0
aI1
aI1
aI0
aI8
aI9
aa(lp47
I3
aI3
aI0
aI5
aI4
aI4
aa(lp48
I2
aI7
aI7
aI5
aI0
aI0
aag32
aa(lp49
g23
ag24
ag46
ag47
ag48
a(lp50
I2
aI0
aI0
aI6
aI6
aI0
aaa(lp51
g23
ag24
ag46
ag47
ag48
a(lp52
I2
aI0
aI6
aI6
aI0
aI0
aaa(lp53
g23
ag24
ag46
ag47
ag48
a(lp54
I2
aI6
aI6
aI0
aI0
aI0
aaa(lp55
g23
ag24
ag46
a(lp56
I3
aI3
aI0
aI0
aI4
aI4
aa(lp57
I2
aI7
aI7
aI5
aI0
aI0
aa(lp58
I2
aI6
aI6
aI5
aI0
aI0
aaa(lp59
g23
ag24
ag46
a(lp60
I3
aI3
aI0
aI4
aI4
aI0
aag57
ag58
aa(lp61
g23
ag24
ag46
a(lp62
I3
aI3
aI4
aI4
aI0
aI0
aag57
ag58
aa(lp63
g23
a(lp64
I10
aI10
aI11
aI11
aI0
aI9
aa(lp65
I0
aI1
aI1
aI0
aI8
aI9
aa(lp66
I3
aI3
aI4
aI4
aI8
aI0
aag57
ag58
aa(lp67
g23
ag64
a(lp68
I0
aI1
aI1
aI0
aI0
aI9
aa(lp69
I3
aI3
aI4
aI4
aI8
aI0
aa(lp70
I2
aI7
aI7
aI5
aI8
aI0
aag58
aa(lp71
(lp72
I0
aI12
aI12
aI13
aI13
aI0
aa(lp73
I10
aI10
aI11
aI11
aI0
aI9
aa(lp74
I0
aI1
aI1
aI0
aI0
aI9
aa(lp75
I3
aI3
aI4
aI4
aI8
aI9
aag70
ag58
aa(lp76
g72
a(lp77
I10
aI10
aI11
aI11
aI0
aI0
aa(lp78
I0
aI1
aI1
aI0
aI0
aI9
aa(lp79
I3
aI3
aI4
aI4
aI8
aI9
aa(lp80
I2
aI7
aI7
aI5
aI8
aI9
aag58
aa(lp81
g72
ag77
a(lp82
I0
aI1
aI1
aI0
aI0
aI0
aa(lp83
I3
aI3
aI4
aI4
aI8
aI9
aa(lp84
I2
aI7
aI7
aI5
aI8
aI9
aa(lp85
I2
aI6
aI6
aI5
aI0
aI9
aaa.