(lp0
(I0
I0
I12
I12
I13
I13
I0
I10
I10
I11
I11
I9
I0
I0
I1
I1
I8
I9
I3
I3
I4
I4
I8
I9
I2
I0
I0
I5
I7
I7
I2
I0
I0
I5
I6
I6
tp1
a(I0
I0
I12
I12
I13
I13
I10
I10
I0
I11
I11
I9
I0
I0
I1
I1
I8
I9
I3
I3
I4
I4
I8
I9
I2
I0
I0
I5
I7
I7
I2
I0
I0
I5
I6
I6
tp2
a(I0
I0
I12
I12
I13
I13
I10
I10
I11
I11
I0
I9
I0
I0
I1
I1
I8
I9
I3
I3
I4
I4
I8
I9
I2
I0
I0
I5
I7
I7
I2
I0
I0
I5
I6
I6
tp3
a(I0
I0
I12
I12
I13
I13
I10
I10
I11
I11
I8
I9
I0
I0
I1
I1
I8
I9
I3
I3
I4
I4
I0
I9
I2
I0
I0
I5
I7
I7
I2
I0
I0
I5
I6
I6
tp4
a(I0
I0
I12
I12
I13
I13
I10
I10
I11
I11
I8
I9
I0
I0
I1
I1
I8
I9
I3
I3
I0
I4
I4
I9
I2
I0
I0
I5
I7
I7
I2
I0
I0
I5
I6
I6
tp5
a(I0
I12
I12
I0
I13
I13
I10
I10
I11
I11
I8
I9
I0
I0
I1
I1
I8
I9
I3
I3
I0
I4
I4
I9
I2
I0
I0
I5
I7
I7
I2
I0
I0
I5
I6
I6
tp6
a(I0
I12
I12
I13
I13
I0
I10
I10
I11
I11
I8
I9
I0
I0
I1
I1
I8
I9
I3
I3
I0
I4
I4
I9
I2
I0
I0
I5
I7
I7
I2
I0
I0
I5
I6
I6
tp7
a(I0
I12
I12
I13
I13
I9
I10
I10
I11
I11
I8
I9
I0
I0
I1
I1
I8
I9
I3
I3
I0
I4
I4
I0
I2
I0
I0
I5
I7
I7
I2
I0
I0
I5
I6
I6
tp8
a(I0
I12
I12
I13
I13
I9
I10
I10
I11
I11
I8
I9
I0
I0
I1
I1
I8
I9
I3
I3
I0
I0
I4
I4
I2
I0
I0
I5
I7
I7
I2
I0
I0
I5
I6
I6
tp9
a(I0
I12
I12
I13
I13
I9
I10
I10
I11
I11
I8
I9
I0
I0
I1
I1
I8
I9
I3
I3
I0
I5
I4
I4
I2
I0
I0
I5
I7
I7
I2
I0
I0
I0
I6
I6
tp10
a(I0
I12
I12
I13
I13
I9
I10
I10
I11
I11
I8
I9
I0
I1
I1
I0
I8
I9
I3
I3
I0
I5
I4
I4
I2
I0
I0
I5
I7
I7
I2
I0
I0
I0
I6
I6
tp11
a(I0
I12
I12
I13
I13
I9
I10
I10
I11
I11
I8
I9
I0
I1
I1
I5
I8
I9
I3
I3
I0
I5
I4
I4
I2
I0
I0
I0
I7
I7
I2
I0
I0
I0
I6
I6
tp12
a(I0
I12
I12
I13
I13
I9
I10
I10
I11
I11
I8
I9
I0
I1
I1
I5
I8
I9
I3
I3
I0
I5
I4
I4
I2
I0
I0
I7
I7
I0
I2
I0
I0
I0
I6
I6
tp13
a(I0
I12
I12
I13
I13
I9
I10
I10
I11
I11
I8
I9
I0
I1
I1
I5
I8
I9
I3
I3
I0
I5
I4
I4
I2
I0
I7
I7
I0
I0
I2
I0
I0
I0
I6
I6
tp14
a(I0
I12
I12
I13
I13
I9
I10
I10
I11
I11
I8
I9
I0
I1
I1
I5
I8
I9
I3
I3
I0
I5
I4
I4
I2
I7
I7
I0
I0
I0
I2
I0
I0
I0
I6
I6
tp15
a(I0
I12
I12
I13
I13
I9
I10
I10
I11
I11
I8
I9
I0
I1
I1
I0
I8
I9
I3
I3
I0
I5
I4
I4
I2
I7
I7
I5
I0
I0
I2
I0
I0
I0
I6
I6
tp16
a(I0
I12
I12
I13
I13
I9
I10
I10
I11
I11
I8
I9
I0
I1
I1
I0
I8
I9
I3
I3
I0
I5
I4
I4
I2
I7
I7
I5
I0
I0
I2
I0
I0
I6
I6
I0
tp17
a(I0
I12
I12
I13
I13
I9
I10
I10
I11
I11
I8
I9
I0
I1
I1
I0
I8
I9
I3
I3
I0
I5
I4
I4
I2
I7
I7
I5
I0
I0
I2
I0
I6
I6
I0
I0
tp18
a(I0
I12
I12
I13
I13
I9
I10
I10
I11
I11
I8
I9
I0
I1
I1
I0
I8
I9
I3
I3
I0
I5
I4
I4
I2
I7
I7
I5
I0
I0
I2
I6
I6
I0
I0
I0
tp19
a(I0
I12
I12
I13
I13
I9
I10
I10
I11
I11
I8
I9
I0
I1
I1
I0
I8
I9
I3
I3
I0
I0
I4
I4
I2
I7
I7
I5
I0
I0
I2
I6
I6
I5
I0
I0
tp20
a(I0
I12
I12
I13
I13
I9
I10
I10
I11
I11
I8
I9
I0
I1
I1
I0
I8
I9
I3
I3
I0
I4
I4
I0
I2
I7
I7
I5
I0
I0
I2
I6
I6
I5
I0
I0
tp21
a(I0
I12
I12
I13
I13
I9
I10
I10
I11
I11
I8
I9
I0
I1
I1
I0
I8
I9
I3
I3
I4
I4
I0
I0
I2
I7
I7
I5
I0
I0
I2
I6
I6
I5
I0
I0
tp22
a(I0
I12
I12
I13
I13
I9
I10
I10
I11
I11
I0
I9
I0
I1
I1
I0
I8
I9
I3
I3
I4
I4
I8
I0
I2
I7
I7
I5
I0
I0
I2
I6
I6
I5
I0
I0
tp23
a(I0
I12
I12
I13
I13
I9
I10
I10
I11
I11
I0
I9
I0
I1
I1
I0
I0
I9
I3
I3
I4
I4
I8
I0
I2
I7
I7
I5
I8
I0
I2
I6
I6
I5
I0
I0
tp24
a(I0
I12
I12
I13
I13
I0
I10
I10
I11
I11
I0
I9
I0
I1
I1
I0
I0
I9
I3
I3
I4
I4
I8
I9
I2
I7
I7
I5
I8
I0
I2
I6
I6
I5
I0
I0
tp25
a(I0
I12
I12
I13
I13
I0
I10
I10
I11
I11
I0
I0
I0
I1
I1
I0
I0
I9
I3
I3
I4
I4
I8
I9
I2
I7
I7
I5
I8
I9
I2
I6
I6
I5
I0
I0
tp26
a(I0
I12
I12
I13
I13
I0
I10
I10
I11
I11
I0
I0
I0
I1
I1
I0
I0
I0
I3
I3
I4
I4
I8
I9
I2
I7
I7
I5
I8
I9
I2
I6
I6
I5
I0
I9
tp27
a.