(lp0
(lp1
(lp2
I2
aI3
aI3
aI3
aI0
aI4
aI0
aI0
aI0
aa(lp3
I2
aI0
aI0
aI7
aI0
aI4
aI5
aI5
aI5
aa(lp4
I0
aI0
aI0
aI7
aI0
aI4
aI0
aI0
aI9
aa(lp5
I6
aI6
aI0
aI7
aI0
aI8
aI8
aI8
aI9
aa(lp6
I10
aI1
aI1
aI11
aI0
aI0
aI0
aI0
aI9
aa(lp7
I10
aI0
aI16
aI11
aI0
aI12
aI12
aI12
aI13
aa(lp8
I14
aI14
aI16
aI18
aI20
aI20
aI0
aI0
aI13
aa(lp9
I15
aI0
aI16
aI18
aI19
aI0
aI0
aI0
aI13
aa(lp10
I15
aI17
aI17
aI17
aI19
aI21
aI21
aI22
aI22
aaa(lp11
(lp12
I0
aI3
aI3
aI3
aI0
aI4
aI0
aI0
aI0
aa(lp13
I2
aI0
aI0
aI7
aI0
aI4
aI5
aI5
aI5
aa(lp14
I2
aI0
aI0
aI7
aI0
aI4
aI0
aI0
aI9
aag5
ag6
ag7
ag8
ag9
ag10
aa(lp15
(lp16
I3
aI3
aI3
aI0
aI0
aI4
aI0
aI0
aI0
aag13
ag14
ag5
ag6
ag7
ag8
ag9
ag10
aa(lp17
(lp18
I3
aI3
aI3
aI7
aI0
aI4
aI0
aI0
aI0
aa(lp19
I2
aI0
aI0
aI7
aI0
aI4
aI5
aI5
aI5
aa(lp20
I2
aI0
aI0
aI7
aI0
aI4
aI0
aI0
aI9
aa(lp21
I6
aI6
aI0
aI0
aI0
aI8
aI8
aI8
aI9
aag6
ag7
ag8
ag9
ag10
aa(lp22
g18
ag19
ag20
a(lp23
I6
aI6
aI0
aI0
aI8
aI8
aI8
aI0
aI9
aag6
ag7
ag8
ag9
ag10
aa(lp24
g18
ag19
ag20
a(lp25
I6
aI6
aI0
aI8
aI8
aI8
aI0
aI0
aI9
aag6
ag7
ag8
ag9
ag10
aa(lp26
g18
ag19
ag20
a(lp27
I6
aI6
aI8
aI8
aI8
aI0
aI0
aI0
aI9
aag6
ag7
ag8
ag9
ag10
aa(lp28
(lp29
I3
aI3
aI3
aI7
aI0
aI0
aI0
aI0
aI0
aa(lp30
I2
aI0
aI0
aI7
aI0
aI4
aI5
aI5
aI5
aa(lp31
I2
aI0
aI0
aI7
aI0
aI4
aI0
aI0
aI9
aa(lp32
I6
aI6
aI8
aI8
aI8
aI4
aI0
aI0
aI9
aag6
ag7
ag8
ag9
ag10
aa(lp33
g29
a(lp34
I2
aI0
aI0
aI7
aI0
aI0
aI5
aI5
aI5
aa(lp35
I2
aI0
aI0
aI7
aI0
aI4
aI0
aI0
aI9
aa(lp36
I6
aI6
aI8
aI8
aI8
aI4
aI0
aI0
aI9
aa(lp37
I10
aI1
aI1
aI11
aI0
aI4
aI0
aI0
aI9
aag7
ag8
ag9
ag10
aa(lp38
g29
a(lp39
I2
aI0
aI0
aI7
aI0
aI5
aI5
aI5
aI0
aag35
ag36
ag37
ag7
ag8
ag9
ag10
aa(lp40
g29
a(lp41
I2
aI0
aI0
aI7
aI0
aI5
aI5
aI5
aI9
aa(lp42
I2
aI0
aI0
aI7
aI0
aI4
aI0
aI0
aI9
aa(lp43
I6
aI6
aI8
aI8
aI8
aI4
aI0
aI0
aI9
aa(lp44
I10
aI1
aI1
aI11
aI0
aI4
aI0
aI0
aI0
aag7
ag8
ag9
ag10
aa(lp45
g29
ag41
ag42
ag43
ag44
ag7
a(lp46
I14
aI14
aI16
aI18
aI0
aI20
aI20
aI0
aI13
aag9
ag10
aa(lp47
g29
ag41
ag42
ag43
ag44
ag7
a(lp48
I14
aI14
aI16
aI18
aI19
aI20
aI20
aI0
aI13
aa(lp49
I15
aI0
aI16
aI18
aI19
aI0
aI0
aI0
aI13
aa(lp50
I15
aI17
aI17
aI17
aI0
aI21
aI21
aI22
aI22
aaa(lp51
g29
ag41
ag42
ag43
ag44
ag7
ag48
ag49
a(lp52
I15
aI17
aI17
aI17
aI21
aI21
aI0
aI22
aI22
aaa(lp53
g29
ag41
ag42
ag43
ag44
ag7
ag48
ag49
a(lp54
I15
aI17
aI17
aI17
aI21
aI21
aI22
aI22
aI0
aaa(lp55
g29
ag41
ag42
ag43
ag44
a(lp56
I10
aI0
aI16
aI11
aI0
aI12
aI12
aI12
aI0
aa(lp57
I14
aI14
aI16
aI18
aI19
aI20
aI20
aI0
aI13
aa(lp58
I15
aI0
aI16
aI18
aI19
aI0
aI0
aI0
aI13
aa(lp59
I15
aI17
aI17
aI17
aI21
aI21
aI22
aI22
aI13
aaa(lp60
g29
ag41
ag42
ag43
ag44
a(lp61
I10
aI0
aI16
aI11
aI0
aI0
aI12
aI12
aI12
aag57
ag58
ag59
aa(lp62
g29
ag41
a(lp63
I2
aI0
aI0
aI7
aI0
aI0
aI0
aI0
aI9
aa(lp64
I6
aI6
aI8
aI8
aI8
aI4
aI0
aI0
aI9
aa(lp65
I10
aI1
aI1
aI11
aI0
aI4
aI0
aI0
aI0
aa(lp66
I10
aI0
aI16
aI11
aI0
aI4
aI12
aI12
aI12
aag57
ag58
ag59
aa(lp67
g29
ag41
ag63
ag64
ag65
ag66
a(lp68
I14
aI14
aI16
aI18
aI19
aI0
aI20
aI20
aI13
aag58
ag59
aa(lp69
g29
ag41
ag63
a(lp70
I6
aI6
aI8
aI8
aI8
aI0
aI0
aI0
aI9
aa(lp71
I10
aI1
aI1
aI11
aI0
aI4
aI0
aI0
aI0
aa(lp72
I10
aI0
aI16
aI11
aI0
aI4
aI12
aI12
aI12
aa(lp73
I14
aI14
aI16
aI18
aI19
aI4
aI20
aI20
aI13
aag58
ag59
aa(lp74
g29
ag41
ag63
ag70
a(lp75
I10
aI1
aI1
aI11
aI0
aI0
aI0
aI0
aI0
aa(lp76
I10
aI0
aI16
aI11
aI0
aI4
aI12
aI12
aI12
aa(lp77
I14
aI14
aI16
aI18
aI19
aI4
aI20
aI20
aI13
aa(lp78
I15
aI0
aI16
aI18
aI19
aI4
aI0
aI0
aI13
aag59
aa(lp79
g29
ag41
ag63
a(lp80
I6
aI6
aI0
aI8
aI8
aI8
aI0
aI0
aI9
aag75
ag76
ag77
ag78
ag59
aa(lp81
g29
ag41
ag63
a(lp82
I6
aI6
aI0
aI0
aI8
aI8
aI8
aI0
aI9
aag75
ag76
ag77
ag78
ag59
aa(lp83
g29
ag41
ag63
a(lp84
I0
aI6
aI6
aI0
aI8
aI8
aI8
aI0
aI9
aag75
ag76
ag77
ag78
ag59
aa(lp85
g29
ag41
ag63
a(lp86
I0
aI6
aI6
aI0
aI0
aI8
aI8
aI8
aI9
aag75
ag76
ag77
ag78
ag59
aa(lp87
g29
ag41
ag63
a(lp88
I0
aI0
aI6
aI6
aI0
aI8
aI8
aI8
aI9
aag75
ag76
ag77
ag78
ag59
aa(lp89
g29
ag41
ag63
a(lp90
I0
aI0
aI0
aI6
aI6
aI8
aI8
aI8
aI9
aag75
ag76
ag77
ag78
ag59
aa(lp91
(lp92
I3
aI3
aI3
aI7
aI0
aI0
aI0
aI0
aI9
aa(lp93
I2
aI0
aI0
aI7
aI0
aI5
aI5
aI5
aI9
aa(lp94
I2
aI0
aI0
aI7
aI0
aI0
aI0
aI0
aI9
aa(lp95
I0
aI0
aI0
aI6
aI6
aI8
aI8
aI8
aI0
aag75
ag76
ag77
ag78
ag59
aa(lp96
g92
ag93
ag94
a(lp97
I0
aI0
aI0
aI6
aI6
aI0
aI8
aI8
aI8
aag75
ag76
ag77
ag78
ag59
aa(lp98
g92
ag93
ag94
a(lp99
I0
aI0
aI0
aI0
aI6
aI6
aI8
aI8
aI8
aag75
ag76
ag77
ag78
ag59
aa(lp100
(lp101
I3
aI3
aI3
aI0
aI0
aI0
aI0
aI0
aI9
aa(lp102
I2
aI0
aI0
aI7
aI0
aI5
aI5
aI5
aI9
aa(lp103
I2
aI0
aI0
aI7
aI0
aI0
aI0
aI0
aI9
aa(lp104
I0
aI0
aI0
aI7
aI6
aI6
aI8
aI8
aI8
aag75
ag76
ag77
ag78
ag59
aa(lp105
(lp106
I0
aI3
aI3
aI3
aI0
aI0
aI0
aI0
aI9
aag102
ag103
ag104
ag75
ag76
ag77
ag78
ag59
aa(lp107
g106
ag102
ag103
a(lp108
I10
aI0
aI0
aI7
aI6
aI6
aI8
aI8
aI8
aa(lp109
I10
aI1
aI1
aI11
aI0
aI0
aI0
aI0
aI0
aa(lp110
I0
aI0
aI16
aI11
aI0
aI4
aI12
aI12
aI12
aag77
ag78
ag59
aa(lp111
(lp112
I2
aI3
aI3
aI3
aI0
aI0
aI0
aI0
aI9
aa(lp113
I2
aI0
aI0
aI7
aI0
aI5
aI5
aI5
aI9
aa(lp114
I0
aI0
aI0
aI7
aI0
aI0
aI0
aI0
aI9
aag108
ag109
ag110
ag77
ag78
ag59
aa(lp115
g112
ag113
a(lp116
I10
aI0
aI0
aI7
aI0
aI0
aI0
aI0
aI9
aa(lp117
I10
aI0
aI0
aI7
aI6
aI6
aI8
aI8
aI8
aa(lp118
I0
aI1
aI1
aI11
aI0
aI0
aI0
aI0
aI0
aag110
ag77
ag78
ag59
aa(lp119
g112
ag113
ag116
ag117
a(lp120
I1
aI1
aI0
aI11
aI0
aI0
aI0
aI0
aI0
aag110
ag77
ag78
ag59
aa(lp121
g112
ag113
ag116
ag117
a(lp122
I1
aI1
aI16
aI11
aI0
aI0
aI0
aI0
aI0
aa(lp123
I0
aI0
aI16
aI11
aI0
aI4
aI12
aI12
aI12
aa(lp124
I14
aI14
aI16
aI18
aI19
aI4
aI20
aI20
aI13
aa(lp125
I15
aI0
aI0
aI18
aI19
aI4
aI0
aI0
aI13
aag59
aa(lp126
g112
ag113
ag116
a(lp127
I10
aI0
aI16
aI7
aI6
aI6
aI8
aI8
aI8
aa(lp128
I1
aI1
aI16
aI11
aI0
aI0
aI0
aI0
aI0
aa(lp129
I0
aI0
aI16
aI11
aI0
aI4
aI12
aI12
aI12
aa(lp130
I14
aI14
aI0
aI18
aI19
aI4
aI20
aI20
aI13
aag125
ag59
aa(lp131
g112
ag113
ag116
ag127
ag128
ag129
a(lp132
I0
aI14
aI14
aI18
aI19
aI4
aI20
aI20
aI13
aag125
ag59
aa(lp133
g112
ag113
ag116
ag127
ag128
ag129
a(lp134
I15
aI14
aI14
aI18
aI19
aI4
aI20
aI20
aI13
aa(lp135
I15
aI0
aI0
aI18
aI19
aI4
aI0
aI0
aI13
aa(lp136
I0
aI17
aI17
aI17
aI21
aI21
aI22
aI22
aI13
aaa(lp137
g112
ag113
ag116
ag127
ag128
ag129
ag134
ag135
a(lp138
I17
aI17
aI17
aI0
aI21
aI21
aI22
aI22
aI13
aaa(lp139
g112
ag113
ag116
ag127
ag128
ag129
a(lp140
I15
aI14
aI14
aI0
aI19
aI4
aI20
aI20
aI13
aa(lp141
I15
aI0
aI0
aI18
aI19
aI4
aI0
aI0
aI13
aa(lp142
I17
aI17
aI17
aI18
aI21
aI21
aI22
aI22
aI13
aaa(lp143
g112
ag113
ag116
ag127
a(lp144
I1
aI1
aI16
aI0
aI0
aI0
aI0
aI0
aI0
aa(lp145
I0
aI0
aI16
aI11
aI0
aI4
aI12
aI12
aI12
aa(lp146
I15
aI14
aI14
aI11
aI19
aI4
aI20
aI20
aI13
aag141
ag142
aa(lp147
g112
ag113
a(lp148
I10
aI0
aI16
aI7
aI0
aI0
aI0
aI0
aI9
aa(lp149
I10
aI0
aI16
aI7
aI6
aI6
aI8
aI8
aI8
aa(lp150
I1
aI1
aI16
aI0
aI0
aI0
aI0
aI0
aI0
aa(lp151
I0
aI0
aI0
aI11
aI0
aI4
aI12
aI12
aI12
aag146
ag141
ag142
aa(lp152
g112
a(lp153
I2
aI0
aI16
aI7
aI0
aI5
aI5
aI5
aI9
aa(lp154
I10
aI0
aI16
aI7
aI0
aI0
aI0
aI0
aI9
aa(lp155
I10
aI0
aI16
aI7
aI6
aI6
aI8
aI8
aI8
aa(lp156
I1
aI1
aI0
aI0
aI0
aI0
aI0
aI0
aI0
aag151
ag146
ag141
ag142
aa.