(lp0
(lp1
(lp2
I0
aI0
aI8
aI6
aI6
aI9
aa(lp3
I0
aI0
aI8
aI0
aI0
aI9
aa(lp4
I0
aI0
aI8
aI1
aI1
aI9
aa(lp5
I0
aI0
aI0
aI7
aI5
aI5
aa(lp6
I2
aI3
aI3
aI7
aI0
aI0
aa(lp7
I2
aI0
aI0
aI7
aI4
aI4
aaa(lp8
(lp9
I0
aI0
aI0
aI6
aI6
aI9
aa(lp10
I0
aI0
aI8
aI0
aI0
aI9
aa(lp11
I0
aI0
aI8
aI1
aI1
aI9
aa(lp12
I0
aI0
aI8
aI7
aI5
aI5
aag6
ag7
aa(lp13
g9
ag10
ag11
a(lp14
I2
aI0
aI8
aI7
aI5
aI5
aa(lp15
I2
aI3
aI3
aI7
aI0
aI0
aa(lp16
I0
aI0
aI0
aI7
aI4
aI4
aaa(lp17
g9
ag10
a(lp18
I2
aI0
aI8
aI1
aI1
aI9
aa(lp19
I2
aI0
aI8
aI7
aI5
aI5
aa(lp20
I0
aI3
aI3
aI7
aI0
aI0
aag16
aa(lp21
g9
ag10
ag18
ag19
a(lp22
I3
aI3
aI0
aI7
aI0
aI0
aag16
aa(lp23
g9
a(lp24
I0
aI0
aI0
aI0
aI0
aI9
aa(lp25
I2
aI0
aI8
aI1
aI1
aI9
aa(lp26
I2
aI0
aI8
aI7
aI5
aI5
aa(lp27
I3
aI3
aI8
aI7
aI0
aI0
aag16
aa(lp28
g9
ag24
a(lp29
I2
aI0
aI0
aI1
aI1
aI9
aa(lp30
I2
aI0
aI8
aI7
aI5
aI5
aa(lp31
I3
aI3
aI8
aI7
aI0
aI0
aa(lp32
I0
aI0
aI8
aI7
aI4
aI4
aaa(lp33
g9
ag24
a(lp34
I2
aI0
aI1
aI1
aI0
aI9
aag30
ag31
ag32
aa(lp35
g9
ag24
a(lp36
I2
aI1
aI1
aI0
aI0
aI9
aag30
ag31
ag32
aa(lp37
g9
ag24
a(lp38
I2
aI1
aI1
aI7
aI0
aI9
aa(lp39
I2
aI0
aI8
aI7
aI5
aI5
aa(lp40
I3
aI3
aI8
aI7
aI0
aI0
aa(lp41
I0
aI0
aI8
aI0
aI4
aI4
aaa(lp42
g9
a(lp43
I0
aI0
aI0
aI7
aI0
aI9
aa(lp44
I2
aI1
aI1
aI7
aI0
aI9
aa(lp45
I2
aI0
aI8
aI7
aI5
aI5
aa(lp46
I3
aI3
aI8
aI0
aI0
aI0
aag41
aa(lp47
g9
a(lp48
I2
aI0
aI0
aI7
aI0
aI9
aa(lp49
I2
aI1
aI1
aI7
aI0
aI9
aa(lp50
I0
aI0
aI8
aI7
aI5
aI5
aag46
ag41
aa(lp51
(lp52
I2
aI0
aI0
aI6
aI6
aI9
aa(lp53
I2
aI0
aI0
aI7
aI0
aI9
aa(lp54
I0
aI1
aI1
aI7
aI0
aI9
aag50
ag46
ag41
aa(lp55
g52
ag53
a(lp56
I1
aI1
aI0
aI7
aI0
aI9
aag50
ag46
ag41
aa(lp57
g52
ag53
a(lp58
I1
aI1
aI8
aI7
aI0
aI9
aa(lp59
I0
aI0
aI8
aI7
aI5
aI5
aa(lp60
I3
aI3
aI8
aI0
aI0
aI0
aa(lp61
I0
aI0
aI0
aI0
aI4
aI4
aaa(lp62
g52
a(lp63
I2
aI0
aI8
aI7
aI0
aI9
aa(lp64
I1
aI1
aI8
aI7
aI0
aI9
aa(lp65
I0
aI0
aI8
aI7
aI5
aI5
aa(lp66
I3
aI3
aI0
aI0
aI0
aI0
aag61
aa(lp67
g52
ag63
ag64
ag65
a(lp68
I0
aI3
aI3
aI0
aI0
aI0
aag61
aa(lp69
g52
ag63
ag64
ag65
a(lp70
I0
aI0
aI3
aI3
aI0
aI0
aag61
aa(lp71
g52
ag63
ag64
ag65
a(lp72
I0
aI0
aI0
aI3
aI3
aI0
aag61
aa(lp73
g52
a(lp74
I2
aI0
aI0
aI7
aI0
aI9
aa(lp75
I1
aI1
aI8
aI7
aI0
aI9
aa(lp76
I0
aI0
aI8
aI7
aI5
aI5
aa(lp77
I0
aI0
aI8
aI3
aI3
aI0
aag61
aa(lp78
g52
ag74
a(lp79
I1
aI1
aI0
aI7
aI0
aI9
aa(lp80
I0
aI0
aI8
aI7
aI5
aI5
aa(lp81
I0
aI0
aI8
aI3
aI3
aI0
aa(lp82
I0
aI0
aI8
aI0
aI4
aI4
aaa(lp83
(lp84
I2
aI0
aI6
aI6
aI0
aI9
aag74
ag79
ag80
ag81
ag82
aa(lp85
(lp86
I2
aI6
aI6
aI0
aI0
aI9
aag74
ag79
ag80
ag81
ag82
aa(lp87
(lp88
I2
aI6
aI6
aI7
aI0
aI9
aa(lp89
I2
aI0
aI0
aI7
aI0
aI9
aa(lp90
I1
aI1
aI0
aI7
aI0
aI9
aa(lp91
I0
aI0
aI8
aI0
aI5
aI5
aag81
ag82
aa(lp92
g88
ag89
ag90
a(lp93
I0
aI0
aI8
aI5
aI5
aI0
aag81
ag82
aa(lp94
(lp95
I2
aI6
aI6
aI7
aI0
aI0
aa(lp96
I2
aI0
aI0
aI7
aI0
aI9
aa(lp97
I1
aI1
aI0
aI7
aI0
aI9
aa(lp98
I0
aI0
aI8
aI5
aI5
aI9
aag81
ag82
aa(lp99
g95
a(lp100
I2
aI0
aI0
aI7
aI0
aI0
aa(lp101
I1
aI1
aI0
aI7
aI0
aI9
aa(lp102
I0
aI0
aI8
aI5
aI5
aI9
aa(lp103
I0
aI0
aI8
aI3
aI3
aI9
aag82
aa(lp104
g95
ag100
ag101
ag102
ag103
a(lp105
I0
aI0
aI8
aI4
aI4
aI0
aaa(lp106
g95
ag100
a(lp107
I1
aI1
aI0
aI7
aI0
aI0
aa(lp108
I0
aI0
aI8
aI5
aI5
aI9
aa(lp109
I0
aI0
aI8
aI3
aI3
aI9
aa(lp110
I0
aI0
aI8
aI4
aI4
aI9
aaa(lp111
g95
ag100
a(lp112
I0
aI1
aI1
aI7
aI0
aI0
aag108
ag109
ag110
aa(lp113
(lp114
I0
aI6
aI6
aI7
aI0
aI0
aa(lp115
I2
aI0
aI0
aI7
aI0
aI0
aa(lp116
I2
aI1
aI1
aI7
aI0
aI0
aag108
ag109
ag110
aa(lp117
g114
a(lp118
I0
aI0
aI0
aI7
aI0
aI0
aa(lp119
I2
aI1
aI1
aI7
aI0
aI0
aa(lp120
I2
aI0
aI8
aI5
aI5
aI9
aag109
ag110
aa(lp121
g114
ag118
a(lp122
I0
aI1
aI1
aI7
aI0
aI0
aa(lp123
I2
aI0
aI8
aI5
aI5
aI9
aa(lp124
I2
aI0
aI8
aI3
aI3
aI9
aag110
aa(lp125
g114
ag118
a(lp126
I1
aI1
aI0
aI7
aI0
aI0
aag123
ag124
ag110
aa(lp127
g114
ag118
a(lp128
I1
aI1
aI8
aI7
aI0
aI0
aa(lp129
I2
aI0
aI8
aI5
aI5
aI9
aa(lp130
I2
aI0
aI8
aI3
aI3
aI9
aa(lp131
I0
aI0
aI0
aI4
aI4
aI9
aaa(lp132
g114
a(lp133
I0
aI0
aI8
aI7
aI0
aI0
aa(lp134
I1
aI1
aI8
aI7
aI0
aI0
aa(lp135
I2
aI0
aI8
aI5
aI5
aI9
aa(lp136
I2
aI0
aI0
aI3
aI3
aI9
aag131
aa(lp137
g114
ag133
ag134
a(lp138
I0
aI0
aI8
aI5
aI5
aI9
aa(lp139
I2
aI0
aI0
aI3
aI3
aI9
aa(lp140
I2
aI0
aI0
aI4
aI4
aI9
aaa(lp141
(lp142
I6
aI6
aI0
aI7
aI0
aI0
aag133
ag134
ag138
ag139
ag140
aa(lp143
(lp144
I6
aI6
aI8
aI7
aI0
aI0
aa(lp145
I0
aI0
aI8
aI7
aI0
aI0
aa(lp146
I1
aI1
aI8
aI7
aI0
aI0
aa(lp147
I0
aI0
aI0
aI5
aI5
aI9
aag139
ag140
aa(lp148
g144
ag145
ag146
a(lp149
I0
aI0
aI5
aI5
aI0
aI9
aag139
ag140
aa(lp150
g144
ag145
ag146
a(lp151
I0
aI5
aI5
aI0
aI0
aI9
aag139
ag140
aa(lp152
g144
ag145
ag146
a(lp153
I5
aI5
aI0
aI0
aI0
aI9
aag139
ag140
aa(lp154
(lp155
I6
aI6
aI0
aI7
aI0
aI0
aa(lp156
I0
aI0
aI8
aI7
aI0
aI0
aa(lp157
I1
aI1
aI8
aI7
aI0
aI0
aa(lp158
I5
aI5
aI8
aI0
aI0
aI9
aag139
ag140
aa(lp159
(lp160
I0
aI6
aI6
aI7
aI0
aI0
aag156
ag157
ag158
ag139
ag140
aa(lp161
(lp162
I0
aI6
aI6
aI0
aI0
aI0
aa(lp163
I0
aI0
aI8
aI7
aI0
aI0
aa(lp164
I1
aI1
aI8
aI7
aI0
aI0
aa(lp165
I5
aI5
aI8
aI7
aI0
aI9
aag139
ag140
aa(lp166
(lp167
I0
aI0
aI6
aI6
aI0
aI0
aag163
ag164
ag165
ag139
ag140
aa(lp168
(lp169
I0
aI0
aI0
aI6
aI6
aI0
aag163
ag164
ag165
ag139
ag140
aa(lp170
(lp171
I0
aI0
aI0
aI0
aI6
aI6
aag163
ag164
ag165
ag139
ag140
aa(lp172
(lp173
I0
aI0
aI8
aI0
aI6
aI6
aa(lp174
I0
aI0
aI8
aI7
aI0
aI0
aa(lp175
I1
aI1
aI8
aI7
aI0
aI0
aa(lp176
I5
aI5
aI0
aI7
aI0
aI9
aag139
ag140
aa(lp177
g173
ag174
ag175
a(lp178
I0
aI5
aI5
aI7
aI0
aI9
aag139
ag140
aa(lp179
(lp180
I0
aI0
aI8
aI7
aI6
aI6
aa(lp181
I0
aI0
aI8
aI7
aI0
aI0
aa(lp182
I1
aI1
aI8
aI7
aI0
aI0
aa(lp183
I0
aI5
aI5
aI0
aI0
aI9
aag139
ag140
aa(lp184
g180
ag181
ag182
a(lp185
I0
aI0
aI5
aI5
aI0
aI9
aag139
ag140
aa(lp186
g180
ag181
ag182
a(lp187
I0
aI0
aI0
aI5
aI5
aI9
aag139
ag140
aa(lp188
(lp189
I0
aI0
aI0
aI7
aI6
aI6
aa(lp190
I0
aI0
aI8
aI7
aI0
aI0
aa(lp191
I1
aI1
aI8
aI7
aI0
aI0
aa(lp192
I0
aI0
aI8
aI5
aI5
aI9
aag139
ag140
aa(lp193
g189
a(lp194
I0
aI0
aI0
aI7
aI0
aI0
aa(lp195
I1
aI1
aI8
aI7
aI0
aI0
aa(lp196
I0
aI0
aI8
aI5
aI5
aI9
aa(lp197
I2
aI0
aI8
aI3
aI3
aI9
aag140
aa(lp198
g189
ag194
a(lp199
I1
aI1
aI0
aI7
aI0
aI0
aa(lp200
I0
aI0
aI8
aI5
aI5
aI9
aa(lp201
I2
aI0
aI8
aI3
aI3
aI9
aa(lp202
I2
aI0
aI8
aI4
aI4
aI9
aaa(lp203
g189
ag194
a(lp204
I0
aI1
aI1
aI7
aI0
aI0
aag200
ag201
ag202
aa(lp205
g189
ag194
ag204
a(lp206
I2
aI0
aI8
aI5
aI5
aI9
aa(lp207
I2
aI0
aI8
aI3
aI3
aI9
aa(lp208
I0
aI0
aI8
aI4
aI4
aI9
aaa(lp209
g189
ag194
a(lp210
I2
aI1
aI1
aI7
aI0
aI0
aa(lp211
I2
aI0
aI8
aI5
aI5
aI9
aa(lp212
I0
aI0
aI8
aI3
aI3
aI9
aag208
aa(lp213
g189
a(lp214
I2
aI0
aI0
aI7
aI0
aI0
aa(lp215
I2
aI1
aI1
aI7
aI0
aI0
aa(lp216
I0
aI0
aI8
aI5
aI5
aI9
aag212
ag208
aa(lp217
(lp218
I2
aI0
aI0
aI7
aI6
aI6
aa(lp219
I2
aI0
aI0
aI7
aI0
aI0
aa(lp220
I0
aI1
aI1
aI7
aI0
aI0
aag216
ag212
ag208
aa(lp221
g218
ag219
a(lp222
I1
aI1
aI0
aI7
aI0
aI0
aag216
ag212
ag208
aa(lp223
g218
ag219
a(lp224
I1
aI1
aI8
aI7
aI0
aI0
aa(lp225
I0
aI0
aI8
aI5
aI5
aI9
aa(lp226
I0
aI0
aI8
aI3
aI3
aI9
aa(lp227
I0
aI0
aI0
aI4
aI4
aI9
aaa(lp228
g218
a(lp229
I2
aI0
aI8
aI7
aI0
aI0
aa(lp230
I1
aI1
aI8
aI7
aI0
aI0
aa(lp231
I0
aI0
aI8
aI5
aI5
aI9
aa(lp232
I0
aI0
aI0
aI3
aI3
aI9
aag227
aa(lp233
(lp234
I2
aI0
aI8
aI7
aI6
aI6
aa(lp235
I2
aI0
aI8
aI7
aI0
aI0
aa(lp236
I1
aI1
aI8
aI7
aI0
aI0
aa(lp237
I0
aI0
aI0
aI5
aI5
aI9
aag232
ag227
aa(lp238
g234
ag235
ag236
a(lp239
I0
aI0
aI5
aI5
aI0
aI9
aag232
ag227
aa(lp240
g234
ag235
ag236
a(lp241
I0
aI5
aI5
aI0
aI0
aI9
aag232
ag227
aa(lp242
g234
ag235
ag236
a(lp243
I5
aI5
aI0
aI0
aI0
aI9
aag232
ag227
aa(lp244
(lp245
I2
aI0
aI0
aI7
aI6
aI6
aa(lp246
I2
aI0
aI8
aI7
aI0
aI0
aa(lp247
I1
aI1
aI8
aI7
aI0
aI0
aa(lp248
I5
aI5
aI8
aI0
aI0
aI9
aag232
ag227
aa(lp249
g245
ag246
ag247
ag248
a(lp250
I0
aI0
aI3
aI3
aI0
aI9
aag227
aa(lp251
g245
ag246
ag247
ag248
a(lp252
I0
aI3
aI3
aI0
aI0
aI9
aag227
aa(lp253
g245
ag246
ag247
ag248
a(lp254
I3
aI3
aI0
aI0
aI0
aI9
aag227
aa(lp255
g245
a(lp256
I2
aI0
aI0
aI7
aI0
aI0
aa(lp257
I1
aI1
aI8
aI7
aI0
aI0
aa(lp258
I5
aI5
aI8
aI0
aI0
aI9
aa(lp259
I3
aI3
aI8
aI0
aI0
aI9
aag227
aa(lp260
g245
ag256
ag257
ag258
ag259
a(lp261
I0
aI0
aI4
aI4
aI0
aI9
aaa(lp262
g245
ag256
ag257
ag258
ag259
a(lp263
I0
aI4
aI4
aI0
aI0
aI9
aaa(lp264
g245
ag256
ag257
ag258
ag259
a(lp265
I4
aI4
aI0
aI0
aI0
aI9
aaa(lp266
g245
ag256
a(lp267
I1
aI1
aI0
aI7
aI0
aI0
aa(lp268
I5
aI5
aI8
aI0
aI0
aI9
aa(lp269
I3
aI3
aI8
aI0
aI0
aI9
aa(lp270
I4
aI4
aI8
aI0
aI0
aI9
aaa(lp271
(lp272
I2
aI0
aI0
aI0
aI6
aI6
aa(lp273
I2
aI0
aI0
aI7
aI0
aI0
aa(lp274
I1
aI1
aI0
aI7
aI0
aI0
aa(lp275
I5
aI5
aI8
aI7
aI0
aI9
aag269
ag270
aa(lp276
g272
a(lp277
I2
aI0
aI0
aI0
aI0
aI0
aa(lp278
I1
aI1
aI0
aI7
aI0
aI0
aa(lp279
I5
aI5
aI8
aI7
aI0
aI9
aa(lp280
I3
aI3
aI8
aI7
aI0
aI9
aag270
aa(lp281
g272
ag277
a(lp282
I1
aI1
aI0
aI0
aI0
aI0
aa(lp283
I5
aI5
aI8
aI7
aI0
aI9
aa(lp284
I3
aI3
aI8
aI7
aI0
aI9
aa(lp285
I4
aI4
aI8
aI7
aI0
aI9
aaa.