(lp0
(I2
I3
I3
I3
I0
I4
I0
I0
I0
I2
I0
I0
I7
I0
I4
I5
I5
I5
I0
I0
I0
I7
I0
I4
I0
I0
I9
I6
I6
I0
I7
I0
I8
I8
I8
I9
I10
I1
I1
I11
I0
I0
I0
I0
I9
I10
I0
I16
I11
I0
I12
I12
I12
I13
I14
I14
I16
I18
I20
I20
I0
I0
I13
I15
I0
I16
I18
I19
I0
I0
I0
I13
I15
I17
I17
I17
I19
I21
I21
I22
I22
tp1
a(I0
I3
I3
I3
I0
I4
I0
I0
I0
I2
I0
I0
I7
I0
I4
I5
I5
I5
I2
I0
I0
I7
I0
I4
I0
I0
I9
I6
I6
I0
I7
I0
I8
I8
I8
I9
I10
I1
I1
I11
I0
I0
I0
I0
I9
I10
I0
I16
I11
I0
I12
I12
I12
I13
I14
I14
I16
I18
I20
I20
I0
I0
I13
I15
I0
I16
I18
I19
I0
I0
I0
I13
I15
I17
I17
I17
I19
I21
I21
I22
I22
tp2
a(I3
I3
I3
I0
I0
I4
I0
I0
I0
I2
I0
I0
I7
I0
I4
I5
I5
I5
I2
I0
I0
I7
I0
I4
I0
I0
I9
I6
I6
I0
I7
I0
I8
I8
I8
I9
I10
I1
I1
I11
I0
I0
I0
I0
I9
I10
I0
I16
I11
I0
I12
I12
I12
I13
I14
I14
I16
I18
I20
I20
I0
I0
I13
I15
I0
I16
I18
I19
I0
I0
I0
I13
I15
I17
I17
I17
I19
I21
I21
I22
I22
tp3
a(I3
I3
I3
I7
I0
I4
I0
I0
I0
I2
I0
I0
I7
I0
I4
I5
I5
I5
I2
I0
I0
I7
I0
I4
I0
I0
I9
I6
I6
I0
I0
I0
I8
I8
I8
I9
I10
I1
I1
I11
I0
I0
I0
I0
I9
I10
I0
I16
I11
I0
I12
I12
I12
I13
I14
I14
I16
I18
I20
I20
I0
I0
I13
I15
I0
I16
I18
I19
I0
I0
I0
I13
I15
I17
I17
I17
I19
I21
I21
I22
I22
tp4
a(I3
I3
I3
I7
I0
I4
I0
I0
I0
I2
I0
I0
I7
I0
I4
I5
I5
I5
I2
I0
I0
I7
I0
I4
I0
I0
I9
I6
I6
I0
I0
I8
I8
I8
I0
I9
I10
I1
I1
I11
I0
I0
I0
I0
I9
I10
I0
I16
I11
I0
I12
I12
I12
I13
I14
I14
I16
I18
I20
I20
I0
I0
I13
I15
I0
I16
I18
I19
I0
I0
I0
I13
I15
I17
I17
I17
I19
I21
I21
I22
I22
tp5
a(I3
I3
I3
I7
I0
I4
I0
I0
I0
I2
I0
I0
I7
I0
I4
I5
I5
I5
I2
I0
I0
I7
I0
I4
I0
I0
I9
I6
I6
I0
I8
I8
I8
I0
I0
I9
I10
I1
I1
I11
I0
I0
I0
I0
I9
I10
I0
I16
I11
I0
I12
I12
I12
I13
I14
I14
I16
I18
I20
I20
I0
I0
I13
I15
I0
I16
I18
I19
I0
I0
I0
I13
I15
I17
I17
I17
I19
I21
I21
I22
I22
tp6
a(I3
I3
I3
I7
I0
I4
I0
I0
I0
I2
I0
I0
I7
I0
I4
I5
I5
I5
I2
I0
I0
I7
I0
I4
I0
I0
I9
I6
I6
I8
I8
I8
I0
I0
I0
I9
I10
I1
I1
I11
I0
I0
I0
I0
I9
I10
I0
I16
I11
I0
I12
I12
I12
I13
I14
I14
I16
I18
I20
I20
I0
I0
I13
I15
I0
I16
I18
I19
I0
I0
I0
I13
I15
I17
I17
I17
I19
I21
I21
I22
I22
tp7
a(I3
I3
I3
I7
I0
I0
I0
I0
I0
I2
I0
I0
I7
I0
I4
I5
I5
I5
I2
I0
I0
I7
I0
I4
I0
I0
I9
I6
I6
I8
I8
I8
I4
I0
I0
I9
I10
I1
I1
I11
I0
I0
I0
I0
I9
I10
I0
I16
I11
I0
I12
I12
I12
I13
I14
I14
I16
I18
I20
I20
I0
I0
I13
I15
I0
I16
I18
I19
I0
I0
I0
I13
I15
I17
I17
I17
I19
I21
I21
I22
I22
tp8
a(I3
I3
I3
I7
I0
I0
I0
I0
I0
I2
I0
I0
I7
I0
I0
I5
I5
I5
I2
I0
I0
I7
I0
I4
I0
I0
I9
I6
I6
I8
I8
I8
I4
I0
I0
I9
I10
I1
I1
I11
I0
I4
I0
I0
I9
I10
I0
I16
I11
I0
I12
I12
I12
I13
I14
I14
I16
I18
I20
I20
I0
I0
I13
I15
I0
I16
I18
I19
I0
I0
I0
I13
I15
I17
I17
I17
I19
I21
I21
I22
I22
tp9
a(I3
I3
I3
I7
I0
I0
I0
I0
I0
I2
I0
I0
I7
I0
I5
I5
I5
I0
I2
I0
I0
I7
I0
I4
I0
I0
I9
I6
I6
I8
I8
I8
I4
I0
I0
I9
I10
I1
I1
I11
I0
I4
I0
I0
I9
I10
I0
I16
I11
I0
I12
I12
I12
I13
I14
I14
I16
I18
I20
I20
I0
I0
I13
I15
I0
I16
I18
I19
I0
I0
I0
I13
I15
I17
I17
I17
I19
I21
I21
I22
I22
tp10
a(I3
I3
I3
I7
I0
I0
I0
I0
I0
I2
I0
I0
I7
I0
I5
I5
I5
I9
I2
I0
I0
I7
I0
I4
I0
I0
I9
I6
I6
I8
I8
I8
I4
I0
I0
I9
I10
I1
I1
I11
I0
I4
I0
I0
I0
I10
I0
I16
I11
I0
I12
I12
I12
I13
I14
I14
I16
I18
I20
I20
I0
I0
I13
I15
I0
I16
I18
I19
I0
I0
I0
I13
I15
I17
I17
I17
I19
I21
I21
I22
I22
tp11
a(I3
I3
I3
I7
I0
I0
I0
I0
I0
I2
I0
I0
I7
I0
I5
I5
I5
I9
I2
I0
I0
I7
I0
I4
I0
I0
I9
I6
I6
I8
I8
I8
I4
I0
I0
I9
I10
I1
I1
I11
I0
I4
I0
I0
I0
I10
I0
I16
I11
I0
I12
I12
I12
I13
I14
I14
I16
I18
I0
I20
I20
I0
I13
I15
I0
I16
I18
I19
I0
I0
I0
I13
I15
I17
I17
I17
I19
I21
I21
I22
I22
tp12
a(I3
I3
I3
I7
I0
I0
I0
I0
I0
I2
I0
I0
I7
I0
I5
I5
I5
I9
I2
I0
I0
I7
I0
I4
I0
I0
I9
I6
I6
I8
I8
I8
I4
I0
I0
I9
I10
I1
I1
I11
I0
I4
I0
I0
I0
I10
I0
I16
I11
I0
I12
I12
I12
I13
I14
I14
I16
I18
I19
I20
I20
I0
I13
I15
I0
I16
I18
I19
I0
I0
I0
I13
I15
I17
I17
I17
I0
I21
I21
I22
I22
tp13
a(I3
I3
I3
I7
I0
I0
I0
I0
I0
I2
I0
I0
I7
I0
I5
I5
I5
I9
I2
I0
I0
I7
I0
I4
I0
I0
I9
I6
I6
I8
I8
I8
I4
I0
I0
I9
I10
I1
I1
I11
I0
I4
I0
I0
I0
I10
I0
I16
I11
I0
I12
I12
I12
I13
I14
I14
I16
I18
I19
I20
I20
I0
I13
I15
I0
I16
I18
I19
I0
I0
I0
I13
I15
I17
I17
I17
I21
I21
I0
I22
I22
tp14
a(I3
I3
I3
I7
I0
I0
I0
I0
I0
I2
I0
I0
I7
I0
I5
I5
I5
I9
I2
I0
I0
I7
I0
I4
I0
I0
I9
I6
I6
I8
I8
I8
I4
I0
I0
I9
I10
I1
I1
I11
I0
I4
I0
I0
I0
I10
I0
I16
I11
I0
I12
I12
I12
I13
I14
I14
I16
I18
I19
I20
I20
I0
I13
I15
I0
I16
I18
I19
I0
I0
I0
I13
I15
I17
I17
I17
I21
I21
I22
I22
I0
tp15
a(I3
I3
I3
I7
I0
I0
I0
I0
I0
I2
I0
I0
I7
I0
I5
I5
I5
I9
I2
I0
I0
I7
I0
I4
I0
I0
I9
I6
I6
I8
I8
I8
I4
I0
I0
I9
I10
I1
I1
I11
I0
I4
I0
I0
I0
I10
I0
I16
I11
I0
I12
I12
I12
I0
I14
I14
I16
I18
I19
I20
I20
I0
I13
I15
I0
I16
I18
I19
I0
I0
I0
I13
I15
I17
I17
I17
I21
I21
I22
I22
I13
tp16
a(I3
I3
I3
I7
I0
I0
I0
I0
I0
I2
I0
I0
I7
I0
I5
I5
I5
I9
I2
I0
I0
I7
I0
I4
I0
I0
I9
I6
I6
I8
I8
I8
I4
I0
I0
I9
I10
I1
I1
I11
I0
I4
I0
I0
I0
I10
I0
I16
I11
I0
I0
I12
I12
I12
I14
I14
I16
I18
I19
I20
I20
I0
I13
I15
I0
I16
I18
I19
I0
I0
I0
I13
I15
I17
I17
I17
I21
I21
I22
I22
I13
tp17
a(I3
I3
I3
I7
I0
I0
I0
I0
I0
I2
I0
I0
I7
I0
I5
I5
I5
I9
I2
I0
I0
I7
I0
I0
I0
I0
I9
I6
I6
I8
I8
I8
I4
I0
I0
I9
I10
I1
I1
I11
I0
I4
I0
I0
I0
I10
I0
I16
I11
I0
I4
I12
I12
I12
I14
I14
I16
I18
I19
I20
I20
I0
I13
I15
I0
I16
I18
I19
I0
I0
I0
I13
I15
I17
I17
I17
I21
I21
I22
I22
I13
tp18
a(I3
I3
I3
I7
I0
I0
I0
I0
I0
I2
I0
I0
I7
I0
I5
I5
I5
I9
I2
I0
I0
I7
I0
I0
I0
I0
I9
I6
I6
I8
I8
I8
I4
I0
I0
I9
I10
I1
I1
I11
I0
I4
I0
I0
I0
I10
I0
I16
I11
I0
I4
I12
I12
I12
I14
I14
I16
I18
I19
I0
I20
I20
I13
I15
I0
I16
I18
I19
I0
I0
I0
I13
I15
I17
I17
I17
I21
I21
I22
I22
I13
tp19
a(I3
I3
I3
I7
I0
I0
I0
I0
I0
I2
I0
I0
I7
I0
I5
I5
I5
I9
I2
I0
I0
I7
I0
I0
I0
I0
I9
I6
I6
I8
I8
I8
I0
I0
I0
I9
I10
I1
I1
I11
I0
I4
I0
I0
I0
I10
I0
I16
I11
I0
I4
I12
I12
I12
I14
I14
I16
I18
I19
I4
I20
I20
I13
I15
I0
I16
I18
I19
I0
I0
I0
I13
I15
I17
I17
I17
I21
I21
I22
I22
I13
tp20
a(I3
I3
I3
I7
I0
I0
I0
I0
I0
I2
I0
I0
I7
I0
I5
I5
I5
I9
I2
I0
I0
I7
I0
I0
I0
I0
I9
I6
I6
I8
I8
I8
I0
I0
I0
I9
I10
I1
I1
I11
I0
I0
I0
I0
I0
I10
I0
I16
I11
I0
I4
I12
I12
I12
I14
I14
I16
I18
I19
I4
I20
I20
I13
I15
I0
I16
I18
I19
I4
I0
I0
I13
I15
I17
I17
I17
I21
I21
I22
I22
I13
tp21
a(I3
I3
I3
I7
I0
I0
I0
I0
I0
I2
I0
I0
I7
I0
I5
I5
I5
I9
I2
I0
I0
I7
I0
I0
I0
I0
I9
I6
I6
I0
I8
I8
I8
I0
I0
I9
I10
I1
I1
I11
I0
I0
I0
I0
I0
I10
I0
I16
I11
I0
I4
I12
I12
I12
I14
I14
I16
I18
I19
I4
I20
I20
I13
I15
I0
I16
I18
I19
I4
I0
I0
I13
I15
I17
I17
I17
I21
I21
I22
I22
I13
tp22
a(I3
I3
I3
I7
I0
I0
I0
I0
I0
I2
I0
I0
I7
I0
I5
I5
I5
I9
I2
I0
I0
I7
I0
I0
I0
I0
I9
I6
I6
I0
I0
I8
I8
I8
I0
I9
I10
I1
I1
I11
I0
I0
I0
I0
I0
I10
I0
I16
I11
I0
I4
I12
I12
I12
I14
I14
I16
I18
I19
I4
I20
I20
I13
I15
I0
I16
I18
I19
I4
I0
I0
I13
I15
I17
I17
I17
I21
I21
I22
I22
I13
tp23
a(I3
I3
I3
I7
I0
I0
I0
I0
I0
I2
I0
I0
I7
I0
I5
I5
I5
I9
I2
I0
I0
I7
I0
I0
I0
I0
I9
I0
I6
I6
I0
I8
I8
I8
I0
I9
I10
I1
I1
I11
I0
I0
I0
I0
I0
I10
I0
I16
I11
I0
I4
I12
I12
I12
I14
I14
I16
I18
I19
I4
I20
I20
I13
I15
I0
I16
I18
I19
I4
I0
I0
I13
I15
I17
I17
I17
I21
I21
I22
I22
I13
tp24
a(I3
I3
I3
I7
I0
I0
I0
I0
I0
I2
I0
I0
I7
I0
I5
I5
I5
I9
I2
I0
I0
I7
I0
I0
I0
I0
I9
I0
I6
I6
I0
I0
I8
I8
I8
I9
I10
I1
I1
I11
I0
I0
I0
I0
I0
I10
I0
I16
I11
I0
I4
I12
I12
I12
I14
I14
I16
I18
I19
I4
I20
I20
I13
I15
I0
I16
I18
I19
I4
I0
I0
I13
I15
I17
I17
I17
I21
I21
I22
I22
I13
tp25
a(I3
I3
I3
I7
I0
I0
I0
I0
I0
I2
I0
I0
I7
I0
I5
I5
I5
I9
I2
I0
I0
I7
I0
I0
I0
I0
I9
I0
I0
I6
I6
I0
I8
I8
I8
I9
I10
I1
I1
I11
I0
I0
I0
I0
I0
I10
I0
I16
I11
I0
I4
I12
I12
I12
I14
I14
I16
I18
I19
I4
I20
I20
I13
I15
I0
I16
I18
I19
I4
I0
I0
I13
I15
I17
I17
I17
I21
I21
I22
I22
I13
tp26
a(I3
I3
I3
I7
I0
I0
I0
I0
I0
I2
I0
I0
I7
I0
I5
I5
I5
I9
I2
I0
I0
I7
I0
I0
I0
I0
I9
I0
I0
I0
I6
I6
I8
I8
I8
I9
I10
I1
I1
I11
I0
I0
I0
I0
I0
I10
I0
I16
I11
I0
I4
I12
I12
I12
I14
I14
I16
I18
I19
I4
I20
I20
I13
I15
I0
I16
I18
I19
I4
I0
I0
I13
I15
I17
I17
I17
I21
I21
I22
I22
I13
tp27
a(I3
I3
I3
I7
I0
I0
I0
I0
I9
I2
I0
I0
I7
I0
I5
I5
I5
I9
I2
I0
I0
I7
I0
I0
I0
I0
I9
I0
I0
I0
I6
I6
I8
I8
I8
I0
I10
I1
I1
I11
I0
I0
I0
I0
I0
I10
I0
I16
I11
I0
I4
I12
I12
I12
I14
I14
I16
I18
I19
I4
I20
I20
I13
I15
I0
I16
I18
I19
I4
I0
I0
I13
I15
I17
I17
I17
I21
I21
I22
I22
I13
tp28
a(I3
I3
I3
I7
I0
I0
I0
I0
I9
I2
I0
I0
I7
I0
I5
I5
I5
I9
I2
I0
I0
I7
I0
I0
I0
I0
I9
I0
I0
I0
I6
I6
I0
I8
I8
I8
I10
I1
I1
I11
I0
I0
I0
I0
I0
I10
I0
I16
I11
I0
I4
I12
I12
I12
I14
I14
I16
I18
I19
I4
I20
I20
I13
I15
I0
I16
I18
I19
I4
I0
I0
I13
I15
I17
I17
I17
I21
I21
I22
I22
I13
tp29
a(I3
I3
I3
I7
I0
I0
I0
I0
I9
I2
I0
I0
I7
I0
I5
I5
I5
I9
I2
I0
I0
I7
I0
I0
I0
I0
I9
I0
I0
I0
I0
I6
I6
I8
I8
I8
I10
I1
I1
I11
I0
I0
I0
I0
I0
I10
I0
I16
I11
I0
I4
I12
I12
I12
I14
I14
I16
I18
I19
I4
I20
I20
I13
I15
I0
I16
I18
I19
I4
I0
I0
I13
I15
I17
I17
I17
I21
I21
I22
I22
I13
tp30
a(I3
I3
I3
I0
I0
I0
I0
I0
I9
I2
I0
I0
I7
I0
I5
I5
I5
I9
I2
I0
I0
I7
I0
I0
I0
I0
I9
I0
I0
I0
I7
I6
I6
I8
I8
I8
I10
I1
I1
I11
I0
I0
I0
I0
I0
I10
I0
I16
I11
I0
I4
I12
I12
I12
I14
I14
I16
I18
I19
I4
I20
I20
I13
I15
I0
I16
I18
I19
I4
I0
I0
I13
I15
I17
I17
I17
I21
I21
I22
I22
I13
tp31
a(I0
I3
I3
I3
I0
I0
I0
I0
I9
I2
I0
I0
I7
I0
I5
I5
I5
I9
I2
I0
I0
I7
I0
I0
I0
I0
I9
I0
I0
I0
I7
I6
I6
I8
I8
I8
I10
I1
I1
I11
I0
I0
I0
I0
I0
I10
I0
I16
I11
I0
I4
I12
I12
I12
I14
I14
I16
I18
I19
I4
I20
I20
I13
I15
I0
I16
I18
I19
I4
I0
I0
I13
I15
I17
I17
I17
I21
I21
I22
I22
I13
tp32
a(I0
I3
I3
I3
I0
I0
I0
I0
I9
I2
I0
I0
I7
I0
I5
I5
I5
I9
I2
I0
I0
I7
I0
I0
I0
I0
I9
I10
I0
I0
I7
I6
I6
I8
I8
I8
I10
I1
I1
I11
I0
I0
I0
I0
I0
I0
I0
I16
I11
I0
I4
I12
I12
I12
I14
I14
I16
I18
I19
I4
I20
I20
I13
I15
I0
I16
I18
I19
I4
I0
I0
I13
I15
I17
I17
I17
I21
I21
I22
I22
I13
tp33
a(I2
I3
I3
I3
I0
I0
I0
I0
I9
I2
I0
I0
I7
I0
I5
I5
I5
I9
I0
I0
I0
I7
I0
I0
I0
I0
I9
I10
I0
I0
I7
I6
I6
I8
I8
I8
I10
I1
I1
I11
I0
I0
I0
I0
I0
I0
I0
I16
I11
I0
I4
I12
I12
I12
I14
I14
I16
I18
I19
I4
I20
I20
I13
I15
I0
I16
I18
I19
I4
I0
I0
I13
I15
I17
I17
I17
I21
I21
I22
I22
I13
tp34
a(I2
I3
I3
I3
I0
I0
I0
I0
I9
I2
I0
I0
I7
I0
I5
I5
I5
I9
I10
I0
I0
I7
I0
I0
I0
I0
I9
I10
I0
I0
I7
I6
I6
I8
I8
I8
I0
I1
I1
I11
I0
I0
I0
I0
I0
I0
I0
I16
I11
I0
I4
I12
I12
I12
I14
I14
I16
I18
I19
I4
I20
I20
I13
I15
I0
I16
I18
I19
I4
I0
I0
I13
I15
I17
I17
I17
I21
I21
I22
I22
I13
tp35
a(I2
I3
I3
I3
I0
I0
I0
I0
I9
I2
I0
I0
I7
I0
I5
I5
I5
I9
I10
I0
I0
I7
I0
I0
I0
I0
I9
I10
I0
I0
I7
I6
I6
I8
I8
I8
I1
I1
I0
I11
I0
I0
I0
I0
I0
I0
I0
I16
I11
I0
I4
I12
I12
I12
I14
I14
I16
I18
I19
I4
I20
I20
I13
I15
I0
I16
I18
I19
I4
I0
I0
I13
I15
I17
I17
I17
I21
I21
I22
I22
I13
tp36
a(I2
I3
I3
I3
I0
I0
I0
I0
I9
I2
I0
I0
I7
I0
I5
I5
I5
I9
I10
I0
I0
I7
I0
I0
I0
I0
I9
I10
I0
I0
I7
I6
I6
I8
I8
I8
I1
I1
I16
I11
I0
I0
I0
I0
I0
I0
I0
I16
I11
I0
I4
I12
I12
I12
I14
I14
I16
I18
I19
I4
I20
I20
I13
I15
I0
I0
I18
I19
I4
I0
I0
I13
I15
I17
I17
I17
I21
I21
I22
I22
I13
tp37
a(I2
I3
I3
I3
I0
I0
I0
I0
I9
I2
I0
I0
I7
I0
I5
I5
I5
I9
I10
I0
I0
I7
I0
I0
I0
I0
I9
I10
I0
I16
I7
I6
I6
I8
I8
I8
I1
I1
I16
I11
I0
I0
I0
I0
I0
I0
I0
I16
I11
I0
I4
I12
I12
I12
I14
I14
I0
I18
I19
I4
I20
I20
I13
I15
I0
I0
I18
I19
I4
I0
I0
I13
I15
I17
I17
I17
I21
I21
I22
I22
I13
tp38
a(I2
I3
I3
I3
I0
I0
I0
I0
I9
I2
I0
I0
I7
I0
I5
I5
I5
I9
I10
I0
I0
I7
I0
I0
I0
I0
I9
I10
I0
I16
I7
I6
I6
I8
I8
I8
I1
I1
I16
I11
I0
I0
I0
I0
I0
I0
I0
I16
I11
I0
I4
I12
I12
I12
I0
I14
I14
I18
I19
I4
I20
I20
I13
I15
I0
I0
I18
I19
I4
I0
I0
I13
I15
I17
I17
I17
I21
I21
I22
I22
I13
tp39
a(I2
I3
I3
I3
I0
I0
I0
I0
I9
I2
I0
I0
I7
I0
I5
I5
I5
I9
I10
I0
I0
I7
I0
I0
I0
I0
I9
I10
I0
I16
I7
I6
I6
I8
I8
I8
I1
I1
I16
I11
I0
I0
I0
I0
I0
I0
I0
I16
I11
I0
I4
I12
I12
I12
I15
I14
I14
I18
I19
I4
I20
I20
I13
I15
I0
I0
I18
I19
I4
I0
I0
I13
I0
I17
I17
I17
I21
I21
I22
I22
I13
tp40
a(I2
I3
I3
I3
I0
I0
I0
I0
I9
I2
I0
I0
I7
I0
I5
I5
I5
I9
I10
I0
I0
I7
I0
I0
I0
I0
I9
I10
I0
I16
I7
I6
I6
I8
I8
I8
I1
I1
I16
I11
I0
I0
I0
I0
I0
I0
I0
I16
I11
I0
I4
I12
I12
I12
I15
I14
I14
I18
I19
I4
I20
I20
I13
I15
I0
I0
I18
I19
I4
I0
I0
I13
I17
I17
I17
I0
I21
I21
I22
I22
I13
tp41
a(I2
I3
I3
I3
I0
I0
I0
I0
I9
I2
I0
I0
I7
I0
I5
I5
I5
I9
I10
I0
I0
I7
I0
I0
I0
I0
I9
I10
I0
I16
I7
I6
I6
I8
I8
I8
I1
I1
I16
I11
I0
I0
I0
I0
I0
I0
I0
I16
I11
I0
I4
I12
I12
I12
I15
I14
I14
I0
I19
I4
I20
I20
I13
I15
I0
I0
I18
I19
I4
I0
I0
I13
I17
I17
I17
I18
I21
I21
I22
I22
I13
tp42
a(I2
I3
I3
I3
I0
I0
I0
I0
I9
I2
I0
I0
I7
I0
I5
I5
I5
I9
I10
I0
I0
I7
I0
I0
I0
I0
I9
I10
I0
I16
I7
I6
I6
I8
I8
I8
I1
I1
I16
I0
I0
I0
I0
I0
I0
I0
I0
I16
I11
I0
I4
I12
I12
I12
I15
I14
I14
I11
I19
I4
I20
I20
I13
I15
I0
I0
I18
I19
I4
I0
I0
I13
I17
I17
I17
I18
I21
I21
I22
I22
I13
tp43
a(I2
I3
I3
I3
I0
I0
I0
I0
I9
I2
I0
I0
I7
I0
I5
I5
I5
I9
I10
I0
I16
I7
I0
I0
I0
I0
I9
I10
I0
I16
I7
I6
I6
I8
I8
I8
I1
I1
I16
I0
I0
I0
I0
I0
I0
I0
I0
I0
I11
I0
I4
I12
I12
I12
I15
I14
I14
I11
I19
I4
I20
I20
I13
I15
I0
I0
I18
I19
I4
I0
I0
I13
I17
I17
I17
I18
I21
I21
I22
I22
I13
tp44
a(I2
I3
I3
I3
I0
I0
I0
I0
I9
I2
I0
I16
I7
I0
I5
I5
I5
I9
I10
I0
I16
I7
I0
I0
I0
I0
I9
I10
I0
I16
I7
I6
I6
I8
I8
I8
I1
I1
I0
I0
I0
I0
I0
I0
I0
I0
I0
I0
I11
I0
I4
I12
I12
I12
I15
I14
I14
I11
I19
I4
I20
I20
I13
I15
I0
I0
I18
I19
I4
I0
I0
I13
I17
I17
I17
I18
I21
I21
I22
I22
I13
tp45
a.